---
triple:          'arm64-apple-darwin'
binary-path:     '/Users/CollinHarris/Documents/DungeonCrawler/DC'
relocations:
  - { offsetInCU: 0x7297, offset: 0x7297, size: 0x8, addend: 0x0, symName: __ZNSt3__19__shuffleB7v160006INS_17_ClassicAlgPolicyENS_11__wrap_iterIPlEES4_NS_26linear_congruential_engineIjLj48271ELj0ELj2147483647EEEEET0_S7_T1_OT2_, symObjAddr: 0x5B98, symBinAddr: 0x1000070E0, symSize: 0x13C }
  - { offsetInCU: 0x88D8, offset: 0x88D8, size: 0x8, addend: 0x0, symName: __ZNSt3__124__put_character_sequenceB7v160006IcNS_11char_traitsIcEEEERNS_13basic_ostreamIT_T0_EES7_PKS4_m, symObjAddr: 0x866C, symBinAddr: 0x100009BB4, symSize: 0x1EC }
  - { offsetInCU: 0xAC02, offset: 0xAC02, size: 0x8, addend: 0x0, symName: __ZNSt3__1lsB7v160006INS_11char_traitsIcEEEERNS_13basic_ostreamIcT_EES6_PKc, symObjAddr: 0x6A4, symBinAddr: 0x100001BEC, symSize: 0x48 }
  - { offsetInCU: 0xAC48, offset: 0xAC48, size: 0x8, addend: 0x0, symName: __ZNSt3__14endlB7v160006IcNS_11char_traitsIcEEEERNS_13basic_ostreamIT_T0_EES7_, symObjAddr: 0x718, symBinAddr: 0x100001C60, symSize: 0x58 }
  - { offsetInCU: 0xAC88, offset: 0xAC88, size: 0x8, addend: 0x0, symName: __ZNSt3__1rsB7v160006IcNS_11char_traitsIcEENS_9allocatorIcEEEERNS_13basic_istreamIT_T0_EES9_RNS_12basic_stringIS6_S7_T1_EE, symObjAddr: 0x79C, symBinAddr: 0x100001CE4, symSize: 0x30C }
  - { offsetInCU: 0xAD55, offset: 0xAD55, size: 0x8, addend: 0x0, symName: __ZNSt3__1lsB7v160006IcNS_11char_traitsIcEENS_9allocatorIcEEEERNS_13basic_ostreamIT_T0_EES9_RKNS_12basic_stringIS6_S7_T1_EE, symObjAddr: 0xAA8, symBinAddr: 0x100001FF0, symSize: 0x4C }
  - { offsetInCU: 0xADAD, offset: 0xADAD, size: 0x8, addend: 0x0, symName: __ZNSt3__111make_sharedB7v160006I4TileJEvEENS_10shared_ptrIT_EEDpOT0_, symObjAddr: 0xD20, symBinAddr: 0x100002268, symSize: 0x38 }
  - { offsetInCU: 0xADDB, offset: 0xADDB, size: 0x8, addend: 0x0, symName: __ZNSt3__119__debug_db_insert_cB7v160006INS_6vectorINS_10shared_ptrI4TileEENS_9allocatorIS4_EEEEEEvPT_, symObjAddr: 0xF00, symBinAddr: 0x100002448, symSize: 0x10 }
  - { offsetInCU: 0xAE0C, offset: 0xAE0C, size: 0x8, addend: 0x0, symName: __ZNSt3__119__debug_db_insert_cB7v160006INS_6vectorIlNS_9allocatorIlEEEEEEvPT_, symObjAddr: 0x106C, symBinAddr: 0x1000025B4, symSize: 0x10 }
  - { offsetInCU: 0xAE3D, offset: 0xAE3D, size: 0x8, addend: 0x0, symName: __ZNSt3__112__to_addressB7v160006INS_10shared_ptrI4TileEEEEPT_S5_, symObjAddr: 0x13C0, symBinAddr: 0x100002908, symSize: 0x14 }
  - { offsetInCU: 0xAE72, offset: 0xAE72, size: 0x8, addend: 0x0, symName: __ZNSt3__13maxB7v160006ImEERKT_S3_S3_, symObjAddr: 0x1860, symBinAddr: 0x100002DA8, symSize: 0x2C }
  - { offsetInCU: 0xAEB5, offset: 0xAEB5, size: 0x8, addend: 0x0, symName: __ZNSt3__13minB7v160006ImEERKT_S3_S3_, symObjAddr: 0x188C, symBinAddr: 0x100002DD4, symSize: 0x2C }
  - { offsetInCU: 0xB0E2, offset: 0xB0E2, size: 0x8, addend: 0x0, symName: __ZNSt3__13minB7v160006ImNS_6__lessImmEEEERKT_S5_S5_T0_, symObjAddr: 0x1918, symBinAddr: 0x100002E60, symSize: 0x54 }
  - { offsetInCU: 0xB177, offset: 0xB177, size: 0x8, addend: 0x0, symName: __ZNSt3__120__throw_length_errorB7v160006EPKc, symObjAddr: 0x19F4, symBinAddr: 0x100002F3C, symSize: 0x64 }
  - { offsetInCU: 0xB19F, offset: 0xB19F, size: 0x8, addend: 0x0, symName: __ZNSt3__13maxB7v160006ImNS_6__lessImmEEEERKT_S5_S5_T0_, symObjAddr: 0x1B38, symBinAddr: 0x100003080, symSize: 0x54 }
  - { offsetInCU: 0xB1F9, offset: 0xB1F9, size: 0x8, addend: 0x0, symName: __ZNSt3__119__allocate_at_leastB7v160006INS_9allocatorINS_10shared_ptrI4TileEEEEEENS_19__allocation_resultINS_16allocator_traitsIT_E7pointerEEERS8_m, symObjAddr: 0x1C9C, symBinAddr: 0x1000031E4, symSize: 0x40 }
  - { offsetInCU: 0xB23C, offset: 0xB23C, size: 0x8, addend: 0x0, symName: __ZNSt3__117__libcpp_allocateB7v160006Emm, symObjAddr: 0x1E20, symBinAddr: 0x100003368, symSize: 0x60 }
  - { offsetInCU: 0xB296, offset: 0xB296, size: 0x8, addend: 0x0, symName: __ZNSt3__124__is_overaligned_for_newB7v160006Em, symObjAddr: 0x1E80, symBinAddr: 0x1000033C8, symSize: 0x20 }
  - { offsetInCU: 0xB2C4, offset: 0xB2C4, size: 0x8, addend: 0x0, symName: __ZNSt3__121__libcpp_operator_newB7v160006IJmSt11align_val_tEEEPvDpT_, symObjAddr: 0x1EA0, symBinAddr: 0x1000033E8, symSize: 0x2C }
  - { offsetInCU: 0xB311, offset: 0xB311, size: 0x8, addend: 0x0, symName: __ZNSt3__121__libcpp_operator_newB7v160006IJmEEEPvDpT_, symObjAddr: 0x1ECC, symBinAddr: 0x100003414, symSize: 0x24 }
  - { offsetInCU: 0xB34A, offset: 0xB34A, size: 0x8, addend: 0x0, symName: __ZNSt3__142__uninitialized_allocator_move_if_noexceptB7v160006INS_9allocatorINS_10shared_ptrI4TileEEEENS_16reverse_iteratorIPS4_EES8_S8_EET2_RT_T0_T1_S9_, symObjAddr: 0x200C, symBinAddr: 0x100003554, symSize: 0x12C }
  - { offsetInCU: 0xB3EA, offset: 0xB3EA, size: 0x8, addend: 0x0, symName: __ZNSt3__14swapB7v160006IPNS_10shared_ptrI4TileEEEENS_9enable_ifIXaasr21is_move_constructibleIT_EE5valuesr18is_move_assignableIS6_EE5valueEvE4typeERS6_S9_, symObjAddr: 0x2184, symBinAddr: 0x1000036CC, symSize: 0x3C }
  - { offsetInCU: 0xB43B, offset: 0xB43B, size: 0x8, addend: 0x0, symName: __ZNSt3__125__debug_db_invalidate_allB7v160006INS_6vectorINS_10shared_ptrI4TileEENS_9allocatorIS4_EEEEEEvPT_, symObjAddr: 0x226C, symBinAddr: 0x1000037B4, symSize: 0x10 }
  - { offsetInCU: 0xB46C, offset: 0xB46C, size: 0x8, addend: 0x0, symName: __ZNSt3__122__make_exception_guardB7v160006INS_29_AllocatorDestroyRangeReverseINS_9allocatorINS_10shared_ptrI4TileEEEENS_16reverse_iteratorIPS5_EEEEEENS_28__exception_guard_exceptionsIT_EESC_, symObjAddr: 0x22C4, symBinAddr: 0x10000380C, symSize: 0x4C }
  - { offsetInCU: 0xB4A2, offset: 0xB4A2, size: 0x8, addend: 0x0, symName: __ZNSt3__1neB7v160006IPNS_10shared_ptrI4TileEES4_EEbRKNS_16reverse_iteratorIT_EERKNS5_IT0_EE, symObjAddr: 0x2354, symBinAddr: 0x10000389C, symSize: 0x48 }
  - { offsetInCU: 0xB4EE, offset: 0xB4EE, size: 0x8, addend: 0x0, symName: __ZNSt3__112__to_addressB7v160006INS_16reverse_iteratorIPNS_10shared_ptrI4TileEEEEvEENS_5decayIDTclsr19__to_address_helperIT_EE6__callclsr3stdE7declvalIRKS8_EEEEE4typeESA_, symObjAddr: 0x239C, symBinAddr: 0x1000038E4, symSize: 0x24 }
  - { offsetInCU: 0xB54D, offset: 0xB54D, size: 0x8, addend: 0x0, symName: __ZNSt3__119__allocator_destroyB7v160006INS_9allocatorINS_10shared_ptrI4TileEEEENS_16reverse_iteratorINS6_IPS4_EEEES9_EEvRT_T0_T1_, symObjAddr: 0x264C, symBinAddr: 0x100003B94, symSize: 0x70 }
  - { offsetInCU: 0xB5B2, offset: 0xB5B2, size: 0x8, addend: 0x0, symName: __ZNSt3__1neB7v160006INS_16reverse_iteratorIPNS_10shared_ptrI4TileEEEES6_EEbRKNS1_IT_EERKNS1_IT0_EE, symObjAddr: 0x26F8, symBinAddr: 0x100003C40, symSize: 0x60 }
  - { offsetInCU: 0xB5FE, offset: 0xB5FE, size: 0x8, addend: 0x0, symName: __ZNSt3__112__to_addressB7v160006INS_16reverse_iteratorINS1_IPNS_10shared_ptrI4TileEEEEEEvEENS_5decayIDTclsr19__to_address_helperIT_EE6__callclsr3stdE7declvalIRKS9_EEEEE4typeESB_, symObjAddr: 0x2784, symBinAddr: 0x100003CCC, symSize: 0x24 }
  - { offsetInCU: 0xB65D, offset: 0xB65D, size: 0x8, addend: 0x0, symName: __ZNSt3__119__libcpp_deallocateB7v160006EPvmm, symObjAddr: 0x2B3C, symBinAddr: 0x100004084, symSize: 0x60 }
  - { offsetInCU: 0xB6C2, offset: 0xB6C2, size: 0x8, addend: 0x0, symName: __ZNSt3__127__do_deallocate_handle_sizeB7v160006IJSt11align_val_tEEEvPvmDpT_, symObjAddr: 0x2B9C, symBinAddr: 0x1000040E4, symSize: 0x30 }
  - { offsetInCU: 0xB715, offset: 0xB715, size: 0x8, addend: 0x0, symName: __ZNSt3__127__do_deallocate_handle_sizeB7v160006IJEEEvPvmDpT_, symObjAddr: 0x2BCC, symBinAddr: 0x100004114, symSize: 0x28 }
  - { offsetInCU: 0xB753, offset: 0xB753, size: 0x8, addend: 0x0, symName: __ZNSt3__124__libcpp_operator_deleteB7v160006IJPvSt11align_val_tEEEvDpT_, symObjAddr: 0x2BF4, symBinAddr: 0x10000413C, symSize: 0x2C }
  - { offsetInCU: 0xB79C, offset: 0xB79C, size: 0x8, addend: 0x0, symName: __ZNSt3__124__libcpp_operator_deleteB7v160006IJPvEEEvDpT_, symObjAddr: 0x2C20, symBinAddr: 0x100004168, symSize: 0x24 }
  - { offsetInCU: 0xB7D1, offset: 0xB7D1, size: 0x8, addend: 0x0, symName: __ZNSt3__115allocate_sharedB7v160006I4TileNS_9allocatorIS1_EEJEvEENS_10shared_ptrIT_EERKT0_DpOT1_, symObjAddr: 0x2C90, symBinAddr: 0x1000041D8, symSize: 0x90 }
  - { offsetInCU: 0xBAFD, offset: 0xBAFD, size: 0x8, addend: 0x0, symName: __ZNSt3__120__throw_out_of_rangeB7v160006EPKc, symObjAddr: 0x3684, symBinAddr: 0x100004BCC, symSize: 0x64 }
  - { offsetInCU: 0xBB27, offset: 0xBB27, size: 0x8, addend: 0x0, symName: __ZNSt3__134__libcpp_atomic_refcount_incrementB7v160006IlEET_RS1_, symObjAddr: 0x389C, symBinAddr: 0x100004DE4, symSize: 0x30 }
  - { offsetInCU: 0xBB5C, offset: 0xBB5C, size: 0x8, addend: 0x0, symName: __ZNSt3__14swapB7v160006IP4TileEENS_9enable_ifIXaasr21is_move_constructibleIT_EE5valuesr18is_move_assignableIS4_EE5valueEvE4typeERS4_S7_, symObjAddr: 0x38CC, symBinAddr: 0x100004E14, symSize: 0x3C }
  - { offsetInCU: 0xBBAD, offset: 0xBBAD, size: 0x8, addend: 0x0, symName: __ZNSt3__14swapB7v160006IPNS_19__shared_weak_countEEENS_9enable_ifIXaasr21is_move_constructibleIT_EE5valuesr18is_move_assignableIS4_EE5valueEvE4typeERS4_S7_, symObjAddr: 0x3908, symBinAddr: 0x100004E50, symSize: 0x3C }
  - { offsetInCU: 0xBBFE, offset: 0xBBFE, size: 0x8, addend: 0x0, symName: __ZNSt3__118__debug_db_erase_cB7v160006INS_6vectorIlNS_9allocatorIlEEEEEEvPT_, symObjAddr: 0x3B30, symBinAddr: 0x100005078, symSize: 0x10 }
  - { offsetInCU: 0xBC2F, offset: 0xBC2F, size: 0x8, addend: 0x0, symName: __ZNSt3__112__to_addressB7v160006IlEEPT_S2_, symObjAddr: 0x3C74, symBinAddr: 0x1000051BC, symSize: 0x14 }
  - { offsetInCU: 0xBC64, offset: 0xBC64, size: 0x8, addend: 0x0, symName: __ZNSt3__118__debug_db_erase_cB7v160006INS_6vectorINS_10shared_ptrI4TileEENS_9allocatorIS4_EEEEEEvPT_, symObjAddr: 0x3F60, symBinAddr: 0x1000054A8, symSize: 0x10 }
  - { offsetInCU: 0xBC95, offset: 0xBC95, size: 0x8, addend: 0x0, symName: __ZNSt3__1neB7v160006I4TileS1_EEbRKNS_10shared_ptrIT_EERKNS2_IT0_EE, symObjAddr: 0x403C, symBinAddr: 0x100005584, symSize: 0x34 }
  - { offsetInCU: 0xBCE4, offset: 0xBCE4, size: 0x8, addend: 0x0, symName: __ZNSt3__1eqB7v160006I4TileS1_EEbRKNS_10shared_ptrIT_EERKNS2_IT0_EE, symObjAddr: 0x4114, symBinAddr: 0x10000565C, symSize: 0x48 }
  - { offsetInCU: 0xBD33, offset: 0xBD33, size: 0x8, addend: 0x0, symName: __ZNSt3__119__allocate_at_leastB7v160006INS_9allocatorIlEEEENS_19__allocation_resultINS_16allocator_traitsIT_E7pointerEEERS5_m, symObjAddr: 0x48C4, symBinAddr: 0x100005E0C, symSize: 0x40 }
  - { offsetInCU: 0xBD76, offset: 0xBD76, size: 0x8, addend: 0x0, symName: __ZNSt3__142__uninitialized_allocator_move_if_noexceptB7v160006INS_9allocatorIlEENS_16reverse_iteratorIPlEES5_lvEET1_RT_T0_S9_S6_, symObjAddr: 0x4A78, symBinAddr: 0x100005FC0, symSize: 0x78 }
  - { offsetInCU: 0xBDF3, offset: 0xBDF3, size: 0x8, addend: 0x0, symName: __ZNSt3__14swapB7v160006IPlEENS_9enable_ifIXaasr21is_move_constructibleIT_EE5valuesr18is_move_assignableIS3_EE5valueEvE4typeERS3_S6_, symObjAddr: 0x4B3C, symBinAddr: 0x100006084, symSize: 0x3C }
  - { offsetInCU: 0xBE44, offset: 0xBE44, size: 0x8, addend: 0x0, symName: __ZNSt3__125__debug_db_invalidate_allB7v160006INS_6vectorIlNS_9allocatorIlEEEEEEvPT_, symObjAddr: 0x4C24, symBinAddr: 0x10000616C, symSize: 0x10 }
  - { offsetInCU: 0xBE75, offset: 0xBE75, size: 0x8, addend: 0x0, symName: __ZNSt3__14moveB7v160006INS_16reverse_iteratorIPlEES3_EET0_T_S5_S4_, symObjAddr: 0x4C34, symBinAddr: 0x10000617C, symSize: 0x78 }
  - { offsetInCU: 0xBECF, offset: 0xBECF, size: 0x8, addend: 0x0, symName: __ZNSt3__16__moveB7v160006INS_17_ClassicAlgPolicyENS_16reverse_iteratorIPlEES4_S4_EENS_4pairIT0_T2_EES6_T1_S7_, symObjAddr: 0x4CAC, symBinAddr: 0x1000061F4, symSize: 0x64 }
  - { offsetInCU: 0xBF3B, offset: 0xBF3B, size: 0x8, addend: 0x0, symName: __ZNSt3__123__dispatch_copy_or_moveB7v160006INS_17_ClassicAlgPolicyENS_11__move_loopIS1_EENS_14__move_trivialENS_16reverse_iteratorIPlEES7_S7_EENS_4pairIT2_T4_EES9_T3_SA_, symObjAddr: 0x4D10, symBinAddr: 0x100006258, symSize: 0x64 }
  - { offsetInCU: 0xBFB9, offset: 0xBFB9, size: 0x8, addend: 0x0, symName: __ZNSt3__121__unwrap_and_dispatchB7v160006INS_10__overloadINS_11__move_loopINS_17_ClassicAlgPolicyEEENS_14__move_trivialEEENS_16reverse_iteratorIPlEES9_S9_Li0EEENS_4pairIT0_T2_EESB_T1_SC_, symObjAddr: 0x4D74, symBinAddr: 0x1000062BC, symSize: 0x12C }
  - { offsetInCU: 0xC049, offset: 0xC049, size: 0x8, addend: 0x0, symName: __ZNSt3__114__unwrap_rangeB7v160006INS_16reverse_iteratorIPlEES3_EENS_4pairIT0_S5_EET_S7_, symObjAddr: 0x4EA0, symBinAddr: 0x1000063E8, symSize: 0x84 }
  - { offsetInCU: 0xC1C4, offset: 0xC1C4, size: 0x8, addend: 0x0, symName: __ZNSt3__113__unwrap_iterB7v160006INS_16reverse_iteratorIPlEENS_18__unwrap_iter_implIS3_Lb0EEELi0EEEDTclsrT0_8__unwrapclsr3stdE7declvalIT_EEEES7_, symObjAddr: 0x4FC4, symBinAddr: 0x10000650C, symSize: 0x44 }
  - { offsetInCU: 0xC208, offset: 0xC208, size: 0x8, addend: 0x0, symName: __ZNSt3__19make_pairB7v160006INS_16reverse_iteratorIPlEES3_EENS_4pairINS_18__unwrap_ref_decayIT_E4typeENS5_IT0_E4typeEEEOS6_OS9_, symObjAddr: 0x5008, symBinAddr: 0x100006550, symSize: 0x38 }
  - { offsetInCU: 0xC257, offset: 0xC257, size: 0x8, addend: 0x0, symName: __ZNSt3__114__rewrap_rangeB7v160006INS_16reverse_iteratorIPlEES3_EET_S4_T0_, symObjAddr: 0x5040, symBinAddr: 0x100006588, symSize: 0x5C }
  - { offsetInCU: 0xC2A3, offset: 0xC2A3, size: 0x8, addend: 0x0, symName: __ZNSt3__113__rewrap_iterB7v160006INS_16reverse_iteratorIPlEES3_NS_18__unwrap_iter_implIS3_Lb0EEEEET_S6_T0_, symObjAddr: 0x509C, symBinAddr: 0x1000065E4, symSize: 0x74 }
  - { offsetInCU: 0xC2F8, offset: 0xC2F8, size: 0x8, addend: 0x0, symName: __ZNSt3__1neB7v160006IPlS1_EEbRKNS_16reverse_iteratorIT_EERKNS2_IT0_EE, symObjAddr: 0x5110, symBinAddr: 0x100006658, symSize: 0x48 }
  - { offsetInCU: 0xC4D9, offset: 0xC4D9, size: 0x8, addend: 0x0, symName: __ZNSt3__17shuffleB7v160006INS_11__wrap_iterIPlEENS_26linear_congruential_engineIjLj48271ELj0ELj2147483647EEEEEvT_S6_OT0_, symObjAddr: 0x5A08, symBinAddr: 0x100006F50, symSize: 0x48 }
  - { offsetInCU: 0xC52F, offset: 0xC52F, size: 0x8, addend: 0x0, symName: __ZNSt3__1miB7v160006IPlS1_EEDTmicldtfp_4baseEcldtfp0_4baseEERKNS_11__wrap_iterIT_EERKNS3_IT0_EE, symObjAddr: 0x5CF4, symBinAddr: 0x10000723C, symSize: 0x48 }
  - { offsetInCU: 0xC57B, offset: 0xC57B, size: 0x8, addend: 0x0, symName: __ZNSt3__1ltB7v160006IPlEEbRKNS_11__wrap_iterIT_EES6_, symObjAddr: 0x5D98, symBinAddr: 0x1000072E0, symSize: 0x48 }
  - { offsetInCU: 0xC5BE, offset: 0xC5BE, size: 0x8, addend: 0x0, symName: __ZNSt3__113__countl_zeroB7v160006ImEEiT_, symObjAddr: 0x6150, symBinAddr: 0x100007698, symSize: 0x54 }
  - { offsetInCU: 0xC659, offset: 0xC659, size: 0x8, addend: 0x0, symName: __ZNSt3__112__libcpp_clzB7v160006Em, symObjAddr: 0x66D0, symBinAddr: 0x100007C18, symSize: 0x1C }
  - { offsetInCU: 0xC685, offset: 0xC685, size: 0x8, addend: 0x0, symName: __ZNSt3__19iter_swapB7v160006INS_11__wrap_iterIPlEES3_EEvT_T0_, symObjAddr: 0x6720, symBinAddr: 0x100007C68, symSize: 0x50 }
  - { offsetInCU: 0xC6CD, offset: 0xC6CD, size: 0x8, addend: 0x0, symName: __ZNSt3__14swapB7v160006IlEENS_9enable_ifIXaasr21is_move_constructibleIT_EE5valuesr18is_move_assignableIS2_EE5valueEvE4typeERS2_S5_, symObjAddr: 0x6770, symBinAddr: 0x100007CB8, symSize: 0x3C }
  - { offsetInCU: 0xC71E, offset: 0xC71E, size: 0x8, addend: 0x0, symName: __ZNSt3__1neB7v160006IPNS_10shared_ptrI4TileEEEEbRKNS_11__wrap_iterIT_EES9_, symObjAddr: 0x6C68, symBinAddr: 0x1000081B0, symSize: 0x34 }
  - { offsetInCU: 0xC761, offset: 0xC761, size: 0x8, addend: 0x0, symName: __ZNSt3__1eqB7v160006IPNS_10shared_ptrI4TileEEEEbRKNS_11__wrap_iterIT_EES9_, symObjAddr: 0x6D68, symBinAddr: 0x1000082B0, symSize: 0x48 }
  - { offsetInCU: 0xC7A4, offset: 0xC7A4, size: 0x8, addend: 0x0, symName: __ZNSt3__122__make_exception_guardB7v160006INS_6vectorINS_10shared_ptrI4TileEENS_9allocatorIS4_EEE16__destroy_vectorEEENS_28__exception_guard_exceptionsIT_EESA_, symObjAddr: 0x6F98, symBinAddr: 0x1000084E0, symSize: 0x40 }
  - { offsetInCU: 0xC7D9, offset: 0xC7D9, size: 0x8, addend: 0x0, symName: __ZNSt3__130__uninitialized_allocator_copyB7v160006INS_9allocatorINS_10shared_ptrI4TileEEEEPS4_S6_S6_EET2_RT_T0_T1_S7_, symObjAddr: 0x720C, symBinAddr: 0x100008754, symSize: 0xF4 }
  - { offsetInCU: 0xC877, offset: 0xC877, size: 0x8, addend: 0x0, symName: __ZNSt3__122__make_exception_guardB7v160006INS_29_AllocatorDestroyRangeReverseINS_9allocatorINS_10shared_ptrI4TileEEEEPS5_EEEENS_28__exception_guard_exceptionsIT_EESA_, symObjAddr: 0x7300, symBinAddr: 0x100008848, symSize: 0x4C }
  - { offsetInCU: 0xC8AD, offset: 0xC8AD, size: 0x8, addend: 0x0, symName: __ZNSt3__119__allocator_destroyB7v160006INS_9allocatorINS_10shared_ptrI4TileEEEENS_16reverse_iteratorIPS4_EES8_EEvRT_T0_T1_, symObjAddr: 0x7590, symBinAddr: 0x100008AD8, symSize: 0x70 }
  - { offsetInCU: 0xC910, offset: 0xC910, size: 0x8, addend: 0x0, symName: __ZNSt3__119__debug_db_insert_cB7v160006INS_6vectorINS_10shared_ptrI4ItemEENS_9allocatorIS4_EEEEEEvPT_, symObjAddr: 0x79A0, symBinAddr: 0x100008EE8, symSize: 0x10 }
  - { offsetInCU: 0xC941, offset: 0xC941, size: 0x8, addend: 0x0, symName: __ZNSt3__118__debug_db_erase_cB7v160006INS_6vectorINS_10shared_ptrI4ItemEENS_9allocatorIS4_EEEEEEvPT_, symObjAddr: 0x81A4, symBinAddr: 0x1000096EC, symSize: 0x10 }
  - { offsetInCU: 0xC972, offset: 0xC972, size: 0x8, addend: 0x0, symName: __ZNSt3__112__to_addressB7v160006INS_10shared_ptrI4ItemEEEEPT_S5_, symObjAddr: 0x82E8, symBinAddr: 0x100009830, symSize: 0x14 }
  - { offsetInCU: 0xC9A7, offset: 0xC9A7, size: 0x8, addend: 0x0, symName: __ZNSt3__134__libcpp_atomic_refcount_decrementB7v160006IlEET_RS1_, symObjAddr: 0x8514, symBinAddr: 0x100009A5C, symSize: 0x30 }
  - { offsetInCU: 0xC9DC, offset: 0xC9DC, size: 0x8, addend: 0x0, symName: __ZNSt3__116__pad_and_outputB7v160006IcNS_11char_traitsIcEEEENS_19ostreambuf_iteratorIT_T0_EES6_PKS4_S8_S8_RNS_8ios_baseES4_, symObjAddr: 0x88A8, symBinAddr: 0x100009DF0, symSize: 0x240 }
  - { offsetInCU: 0xCAAB, offset: 0xCAAB, size: 0x8, addend: 0x0, symName: __ZNSt3__119__debug_db_insert_cB7v160006INS_12basic_stringIcNS_11char_traitsIcEENS_9allocatorIcEEEEEEvPT_, symObjAddr: 0x8D5C, symBinAddr: 0x10000A2A4, symSize: 0x10 }
  - { offsetInCU: 0xCADC, offset: 0xCADC, size: 0x8, addend: 0x0, symName: __ZNSt3__112__to_addressB7v160006IcEEPT_S2_, symObjAddr: 0x8E28, symBinAddr: 0x10000A370, symSize: 0x14 }
  - { offsetInCU: 0xCB44, offset: 0xCB44, size: 0x8, addend: 0x0, symName: __ZNSt3__19use_facetB7v160006INS_5ctypeIcEEEERKT_RKNS_6localeE, symObjAddr: 0x90E0, symBinAddr: 0x10000A628, symSize: 0x2C }
  - { offsetInCU: 0xCF24, offset: 0xCF24, size: 0x8, addend: 0x0, symName: __ZNSt3__118__constexpr_strlenB7v160006EPKc, symObjAddr: 0x9178, symBinAddr: 0x10000A6C0, symSize: 0x24 }
  - { offsetInCU: 0xD4DA, offset: 0xD4DA, size: 0x8, addend: 0x0, symName: __ZNSt3__125__debug_db_invalidate_allB7v160006INS_12basic_stringIcNS_11char_traitsIcEENS_9allocatorIcEEEEEEvPT_, symObjAddr: 0x95D4, symBinAddr: 0x10000AB1C, symSize: 0x10 }
  - { offsetInCU: 0xD50B, offset: 0xD50B, size: 0x8, addend: 0x0, symName: __ZNSt3__112__to_addressB7v160006IKcEEPT_S3_, symObjAddr: 0x9818, symBinAddr: 0x10000AD60, symSize: 0x14 }
  - { offsetInCU: 0xDBA1, offset: 0xDBA1, size: 0x8, addend: 0x0, symName: __ZSt28__throw_bad_array_new_lengthB7v160006v, symObjAddr: 0x1DEC, symBinAddr: 0x100003334, symSize: 0x34 }
  - { offsetInCU: 0xE557, offset: 0xE557, size: 0x8, addend: 0x0, symName: __ZNSt3__16vectorINS_10shared_ptrI4TileEENS_9allocatorIS3_EEE26__swap_out_circular_bufferERNS_14__split_bufferIS3_RS5_EE, symObjAddr: 0x1660, symBinAddr: 0x100002BA8, symSize: 0x118 }
  - { offsetInCU: 0xE6AD, offset: 0xE6AD, size: 0x8, addend: 0x0, symName: __ZNSt3__16vectorIlNS_9allocatorIlEEE26__swap_out_circular_bufferERNS_14__split_bufferIlRS2_EE, symObjAddr: 0x455C, symBinAddr: 0x100005AA4, symSize: 0x118 }
  - { offsetInCU: 0xE740, offset: 0xE740, size: 0x8, addend: 0x0, symName: __ZNSt3__124uniform_int_distributionIlEclINS_26linear_congruential_engineIjLj48271ELj0ELj2147483647EEEEElRT_RKNS1_10param_typeE, symObjAddr: 0x5DE0, symBinAddr: 0x100007328, symSize: 0x174 }
  - { offsetInCU: 0x10D2D, offset: 0x10D2D, size: 0x8, addend: 0x0, symName: _main, symObjAddr: 0x0, symBinAddr: 0x100001548, symSize: 0x154 }
  - { offsetInCU: 0x10D74, offset: 0x10D74, size: 0x8, addend: 0x0, symName: __ZN7DungeonC1E4Size, symObjAddr: 0x154, symBinAddr: 0x10000169C, symSize: 0x34 }
  - { offsetInCU: 0x10DAC, offset: 0x10DAC, size: 0x8, addend: 0x0, symName: __ZN7Dungeon22assign_available_roomsEv, symObjAddr: 0x188, symBinAddr: 0x1000016D0, symSize: 0x104 }
  - { offsetInCU: 0x10E0A, offset: 0x10E0A, size: 0x8, addend: 0x0, symName: __ZN7Dungeon15connect_by_poolEv, symObjAddr: 0x28C, symBinAddr: 0x1000017D4, symSize: 0x1C4 }
  - { offsetInCU: 0x10E5F, offset: 0x10E5F, size: 0x8, addend: 0x0, symName: __Z7getnamev, symObjAddr: 0x450, symBinAddr: 0x100001998, symSize: 0xFC }
  - { offsetInCU: 0x10E8D, offset: 0x10E8D, size: 0x8, addend: 0x0, symName: __ZN7Dungeon9get_startEv, symObjAddr: 0x54C, symBinAddr: 0x100001A94, symSize: 0x3C }
  - { offsetInCU: 0x10F8C, offset: 0x10F8C, size: 0x8, addend: 0x0, symName: __ZN9CharacterC1ENSt3__112basic_stringIcNS0_11char_traitsIcEENS0_9allocatorIcEEEENS0_10shared_ptrI4TileEE, symObjAddr: 0x588, symBinAddr: 0x100001AD0, symSize: 0x3C }
  - { offsetInCU: 0x10FD4, offset: 0x10FD4, size: 0x8, addend: 0x0, symName: __ZNSt3__110shared_ptrI4TileED1B7v160006Ev, symObjAddr: 0x5C4, symBinAddr: 0x100001B0C, symSize: 0x2C }
  - { offsetInCU: 0x10FFE, offset: 0x10FFE, size: 0x8, addend: 0x0, symName: __ZN9Character13full_movementEv, symObjAddr: 0x5F0, symBinAddr: 0x100001B38, symSize: 0x5C }
  - { offsetInCU: 0x11032, offset: 0x11032, size: 0x8, addend: 0x0, symName: __ZN9CharacterD1Ev, symObjAddr: 0x64C, symBinAddr: 0x100001B94, symSize: 0x2C }
  - { offsetInCU: 0x1105E, offset: 0x1105E, size: 0x8, addend: 0x0, symName: __ZN7DungeonD1Ev, symObjAddr: 0x678, symBinAddr: 0x100001BC0, symSize: 0x2C }
  - { offsetInCU: 0x1108A, offset: 0x1108A, size: 0x8, addend: 0x0, symName: __ZNSt3__113basic_ostreamIcNS_11char_traitsIcEEElsB7v160006EPFRS3_S4_E, symObjAddr: 0x6EC, symBinAddr: 0x100001C34, symSize: 0x2C }
  - { offsetInCU: 0x110BE, offset: 0x110BE, size: 0x8, addend: 0x0, symName: __ZNSt3__112basic_stringIcNS_11char_traitsIcEENS_9allocatorIcEEEC1B7v160006Ev, symObjAddr: 0x770, symBinAddr: 0x100001CB8, symSize: 0x2C }
  - { offsetInCU: 0x110E8, offset: 0x110E8, size: 0x8, addend: 0x0, symName: __ZN7DungeonC2E4Size, symObjAddr: 0xAF4, symBinAddr: 0x10000203C, symSize: 0x13C }
  - { offsetInCU: 0x11150, offset: 0x11150, size: 0x8, addend: 0x0, symName: __ZNSt3__16vectorINS_10shared_ptrI4TileEENS_9allocatorIS3_EEEC1B7v160006Ev, symObjAddr: 0xC30, symBinAddr: 0x100002178, symSize: 0x2C }
  - { offsetInCU: 0x1117A, offset: 0x1117A, size: 0x8, addend: 0x0, symName: __ZNSt3__16vectorIlNS_9allocatorIlEEEC1B7v160006Ev, symObjAddr: 0xC5C, symBinAddr: 0x1000021A4, symSize: 0x2C }
  - { offsetInCU: 0x111A4, offset: 0x111A4, size: 0x8, addend: 0x0, symName: __ZNSt3__110shared_ptrI4TileEC1B7v160006Ev, symObjAddr: 0xC88, symBinAddr: 0x1000021D0, symSize: 0x2C }
  - { offsetInCU: 0x111CE, offset: 0x111CE, size: 0x8, addend: 0x0, symName: __ZNSt3__16vectorINS_10shared_ptrI4TileEENS_9allocatorIS3_EEE9push_backB7v160006EOS3_, symObjAddr: 0xCB4, symBinAddr: 0x1000021FC, symSize: 0x6C }
  - { offsetInCU: 0x11205, offset: 0x11205, size: 0x8, addend: 0x0, symName: __ZNSt3__16vectorINS_10shared_ptrI4TileEENS_9allocatorIS3_EEE2atEm, symObjAddr: 0xD58, symBinAddr: 0x1000022A0, symSize: 0x60 }
  - { offsetInCU: 0x1123C, offset: 0x1123C, size: 0x8, addend: 0x0, symName: __ZNSt3__110shared_ptrI4TileEaSB7v160006ERKS2_, symObjAddr: 0xDB8, symBinAddr: 0x100002300, symSize: 0x50 }
  - { offsetInCU: 0x11271, offset: 0x11271, size: 0x8, addend: 0x0, symName: __ZNSt3__16vectorIlNS_9allocatorIlEEED1B7v160006Ev, symObjAddr: 0xE08, symBinAddr: 0x100002350, symSize: 0x2C }
  - { offsetInCU: 0x1129B, offset: 0x1129B, size: 0x8, addend: 0x0, symName: __ZNSt3__16vectorINS_10shared_ptrI4TileEENS_9allocatorIS3_EEED1B7v160006Ev, symObjAddr: 0xE34, symBinAddr: 0x10000237C, symSize: 0x2C }
  - { offsetInCU: 0x112C5, offset: 0x112C5, size: 0x8, addend: 0x0, symName: __ZNSt3__16vectorINS_10shared_ptrI4TileEENS_9allocatorIS3_EEEC2B7v160006Ev, symObjAddr: 0xE60, symBinAddr: 0x1000023A8, symSize: 0x58 }
  - { offsetInCU: 0x112FB, offset: 0x112FB, size: 0x8, addend: 0x0, symName: __ZNSt3__117__compressed_pairIPNS_10shared_ptrI4TileEENS_9allocatorIS3_EEEC1B7v160006IDnNS_18__default_init_tagEEEOT_OT0_, symObjAddr: 0xEB8, symBinAddr: 0x100002400, symSize: 0x3C }
  - { offsetInCU: 0x11353, offset: 0x11353, size: 0x8, addend: 0x0, symName: __ZNSt3__117__compressed_pairIPNS_10shared_ptrI4TileEENS_9allocatorIS3_EEEC2B7v160006IDnNS_18__default_init_tagEEEOT_OT0_, symObjAddr: 0xF10, symBinAddr: 0x100002458, symSize: 0x40 }
  - { offsetInCU: 0x113AB, offset: 0x113AB, size: 0x8, addend: 0x0, symName: __ZNSt3__122__compressed_pair_elemIPNS_10shared_ptrI4TileEELi0ELb0EEC2B7v160006IDnvEEOT_, symObjAddr: 0xF50, symBinAddr: 0x100002498, symSize: 0x1C }
  - { offsetInCU: 0x113ED, offset: 0x113ED, size: 0x8, addend: 0x0, symName: __ZNSt3__122__compressed_pair_elemINS_9allocatorINS_10shared_ptrI4TileEEEELi1ELb1EEC2B7v160006ENS_18__default_init_tagE, symObjAddr: 0xF6C, symBinAddr: 0x1000024B4, symSize: 0x2C }
  - { offsetInCU: 0x11422, offset: 0x11422, size: 0x8, addend: 0x0, symName: __ZNSt3__19allocatorINS_10shared_ptrI4TileEEEC2B7v160006Ev, symObjAddr: 0xF98, symBinAddr: 0x1000024E0, symSize: 0x2C }
  - { offsetInCU: 0x1144C, offset: 0x1144C, size: 0x8, addend: 0x0, symName: __ZNSt3__116__non_trivial_ifILb1ENS_9allocatorINS_10shared_ptrI4TileEEEEEC2B7v160006Ev, symObjAddr: 0xFC4, symBinAddr: 0x10000250C, symSize: 0x14 }
  - { offsetInCU: 0x11476, offset: 0x11476, size: 0x8, addend: 0x0, symName: __ZNSt3__16vectorIlNS_9allocatorIlEEEC2B7v160006Ev, symObjAddr: 0xFD8, symBinAddr: 0x100002520, symSize: 0x58 }
  - { offsetInCU: 0x114A0, offset: 0x114A0, size: 0x8, addend: 0x0, symName: __ZNSt3__117__compressed_pairIPlNS_9allocatorIlEEEC1B7v160006IDnNS_18__default_init_tagEEEOT_OT0_, symObjAddr: 0x1030, symBinAddr: 0x100002578, symSize: 0x3C }
  - { offsetInCU: 0x114F8, offset: 0x114F8, size: 0x8, addend: 0x0, symName: __ZNSt3__117__compressed_pairIPlNS_9allocatorIlEEEC2B7v160006IDnNS_18__default_init_tagEEEOT_OT0_, symObjAddr: 0x107C, symBinAddr: 0x1000025C4, symSize: 0x40 }
  - { offsetInCU: 0x11550, offset: 0x11550, size: 0x8, addend: 0x0, symName: __ZNSt3__122__compressed_pair_elemIPlLi0ELb0EEC2B7v160006IDnvEEOT_, symObjAddr: 0x10BC, symBinAddr: 0x100002604, symSize: 0x1C }
  - { offsetInCU: 0x11592, offset: 0x11592, size: 0x8, addend: 0x0, symName: __ZNSt3__122__compressed_pair_elemINS_9allocatorIlEELi1ELb1EEC2B7v160006ENS_18__default_init_tagE, symObjAddr: 0x10D8, symBinAddr: 0x100002620, symSize: 0x2C }
  - { offsetInCU: 0x115C7, offset: 0x115C7, size: 0x8, addend: 0x0, symName: __ZNSt3__19allocatorIlEC2B7v160006Ev, symObjAddr: 0x1104, symBinAddr: 0x10000264C, symSize: 0x2C }
  - { offsetInCU: 0x115F1, offset: 0x115F1, size: 0x8, addend: 0x0, symName: __ZNSt3__116__non_trivial_ifILb1ENS_9allocatorIlEEEC2B7v160006Ev, symObjAddr: 0x1130, symBinAddr: 0x100002678, symSize: 0x14 }
  - { offsetInCU: 0x1161B, offset: 0x1161B, size: 0x8, addend: 0x0, symName: __ZNSt3__110shared_ptrI4TileEC2B7v160006Ev, symObjAddr: 0x1144, symBinAddr: 0x10000268C, symSize: 0x1C }
  - { offsetInCU: 0x11645, offset: 0x11645, size: 0x8, addend: 0x0, symName: __ZNSt3__16vectorINS_10shared_ptrI4TileEENS_9allocatorIS3_EEE9__end_capB7v160006Ev, symObjAddr: 0x1160, symBinAddr: 0x1000026A8, symSize: 0x28 }
  - { offsetInCU: 0x1166B, offset: 0x1166B, size: 0x8, addend: 0x0, symName: __ZNSt3__16vectorINS_10shared_ptrI4TileEENS_9allocatorIS3_EEE22__construct_one_at_endB7v160006IJS3_EEEvDpOT_, symObjAddr: 0x1188, symBinAddr: 0x1000026D0, symSize: 0x90 }
  - { offsetInCU: 0x116BA, offset: 0x116BA, size: 0x8, addend: 0x0, symName: __ZNSt3__16vectorINS_10shared_ptrI4TileEENS_9allocatorIS3_EEE21__push_back_slow_pathIS3_EEvOT_, symObjAddr: 0x1218, symBinAddr: 0x100002760, symSize: 0xD8 }
  - { offsetInCU: 0x11718, offset: 0x11718, size: 0x8, addend: 0x0, symName: __ZNSt3__117__compressed_pairIPNS_10shared_ptrI4TileEENS_9allocatorIS3_EEE5firstB7v160006Ev, symObjAddr: 0x12F0, symBinAddr: 0x100002838, symSize: 0x24 }
  - { offsetInCU: 0x1173E, offset: 0x1173E, size: 0x8, addend: 0x0, symName: __ZNSt3__122__compressed_pair_elemIPNS_10shared_ptrI4TileEELi0ELb0EE5__getB7v160006Ev, symObjAddr: 0x1314, symBinAddr: 0x10000285C, symSize: 0x14 }
  - { offsetInCU: 0x1177F, offset: 0x1177F, size: 0x8, addend: 0x0, symName: __ZNSt3__16vectorINS_10shared_ptrI4TileEENS_9allocatorIS3_EEE21_ConstructTransactionC1B7v160006ERS6_m, symObjAddr: 0x1328, symBinAddr: 0x100002870, symSize: 0x3C }
  - { offsetInCU: 0x117C7, offset: 0x117C7, size: 0x8, addend: 0x0, symName: __ZNSt3__116allocator_traitsINS_9allocatorINS_10shared_ptrI4TileEEEEE9constructB7v160006IS4_JS4_EvEEvRS5_PT_DpOT0_, symObjAddr: 0x1364, symBinAddr: 0x1000028AC, symSize: 0x34 }
  - { offsetInCU: 0x1181E, offset: 0x1181E, size: 0x8, addend: 0x0, symName: __ZNSt3__16vectorINS_10shared_ptrI4TileEENS_9allocatorIS3_EEE7__allocB7v160006Ev, symObjAddr: 0x1398, symBinAddr: 0x1000028E0, symSize: 0x28 }
  - { offsetInCU: 0x11844, offset: 0x11844, size: 0x8, addend: 0x0, symName: __ZNSt3__16vectorINS_10shared_ptrI4TileEENS_9allocatorIS3_EEE21_ConstructTransactionD1B7v160006Ev, symObjAddr: 0x13D4, symBinAddr: 0x10000291C, symSize: 0x2C }
  - { offsetInCU: 0x1186E, offset: 0x1186E, size: 0x8, addend: 0x0, symName: __ZNSt3__16vectorINS_10shared_ptrI4TileEENS_9allocatorIS3_EEE21_ConstructTransactionC2B7v160006ERS6_m, symObjAddr: 0x1400, symBinAddr: 0x100002948, symSize: 0x44 }
  - { offsetInCU: 0x118B6, offset: 0x118B6, size: 0x8, addend: 0x0, symName: __ZNSt3__19allocatorINS_10shared_ptrI4TileEEE9constructB7v160006IS3_JS3_EEEvPT_DpOT0_, symObjAddr: 0x1444, symBinAddr: 0x10000298C, symSize: 0x30 }
  - { offsetInCU: 0x1190C, offset: 0x1190C, size: 0x8, addend: 0x0, symName: __ZNSt3__110shared_ptrI4TileEC1B7v160006EOS2_, symObjAddr: 0x1474, symBinAddr: 0x1000029BC, symSize: 0x34 }
  - { offsetInCU: 0x11945, offset: 0x11945, size: 0x8, addend: 0x0, symName: __ZNSt3__110shared_ptrI4TileEC2B7v160006EOS2_, symObjAddr: 0x14A8, symBinAddr: 0x1000029F0, symSize: 0x40 }
  - { offsetInCU: 0x1197E, offset: 0x1197E, size: 0x8, addend: 0x0, symName: __ZNSt3__117__compressed_pairIPNS_10shared_ptrI4TileEENS_9allocatorIS3_EEE6secondB7v160006Ev, symObjAddr: 0x14E8, symBinAddr: 0x100002A30, symSize: 0x24 }
  - { offsetInCU: 0x119A4, offset: 0x119A4, size: 0x8, addend: 0x0, symName: __ZNSt3__122__compressed_pair_elemINS_9allocatorINS_10shared_ptrI4TileEEEELi1ELb1EE5__getB7v160006Ev, symObjAddr: 0x150C, symBinAddr: 0x100002A54, symSize: 0x14 }
  - { offsetInCU: 0x119CA, offset: 0x119CA, size: 0x8, addend: 0x0, symName: __ZNSt3__16vectorINS_10shared_ptrI4TileEENS_9allocatorIS3_EEE21_ConstructTransactionD2B7v160006Ev, symObjAddr: 0x1520, symBinAddr: 0x100002A68, symSize: 0x20 }
  - { offsetInCU: 0x119F4, offset: 0x119F4, size: 0x8, addend: 0x0, symName: __ZNKSt3__16vectorINS_10shared_ptrI4TileEENS_9allocatorIS3_EEE11__recommendB7v160006Em, symObjAddr: 0x1540, symBinAddr: 0x100002A88, symSize: 0xB4 }
  - { offsetInCU: 0x11A49, offset: 0x11A49, size: 0x8, addend: 0x0, symName: __ZNKSt3__16vectorINS_10shared_ptrI4TileEENS_9allocatorIS3_EEE4sizeB7v160006Ev, symObjAddr: 0x15F4, symBinAddr: 0x100002B3C, symSize: 0x28 }
  - { offsetInCU: 0x11A6F, offset: 0x11A6F, size: 0x8, addend: 0x0, symName: __ZNSt3__114__split_bufferINS_10shared_ptrI4TileEERNS_9allocatorIS3_EEEC1EmmS6_, symObjAddr: 0x161C, symBinAddr: 0x100002B64, symSize: 0x44 }
  - { offsetInCU: 0x11AC5, offset: 0x11AC5, size: 0x8, addend: 0x0, symName: __ZNSt3__114__split_bufferINS_10shared_ptrI4TileEERNS_9allocatorIS3_EEED1Ev, symObjAddr: 0x1778, symBinAddr: 0x100002CC0, symSize: 0x2C }
  - { offsetInCU: 0x11AF1, offset: 0x11AF1, size: 0x8, addend: 0x0, symName: __ZNKSt3__16vectorINS_10shared_ptrI4TileEENS_9allocatorIS3_EEE8max_sizeEv, symObjAddr: 0x17A4, symBinAddr: 0x100002CEC, symSize: 0x60 }
  - { offsetInCU: 0x11B19, offset: 0x11B19, size: 0x8, addend: 0x0, symName: __ZNKSt3__16vectorINS_10shared_ptrI4TileEENS_9allocatorIS3_EEE20__throw_length_errorB7v160006Ev, symObjAddr: 0x1804, symBinAddr: 0x100002D4C, symSize: 0x1C }
  - { offsetInCU: 0x11B3F, offset: 0x11B3F, size: 0x8, addend: 0x0, symName: __ZNKSt3__16vectorINS_10shared_ptrI4TileEENS_9allocatorIS3_EEE8capacityB7v160006Ev, symObjAddr: 0x1820, symBinAddr: 0x100002D68, symSize: 0x40 }
  - { offsetInCU: 0x11B70, offset: 0x11B70, size: 0x8, addend: 0x0, symName: __ZNSt3__116allocator_traitsINS_9allocatorINS_10shared_ptrI4TileEEEEE8max_sizeB7v160006IS5_vEEmRKS5_, symObjAddr: 0x18B8, symBinAddr: 0x100002E00, symSize: 0x24 }
  - { offsetInCU: 0x11B9E, offset: 0x11B9E, size: 0x8, addend: 0x0, symName: __ZNKSt3__16vectorINS_10shared_ptrI4TileEENS_9allocatorIS3_EEE7__allocB7v160006Ev, symObjAddr: 0x18DC, symBinAddr: 0x100002E24, symSize: 0x28 }
  - { offsetInCU: 0x11BC4, offset: 0x11BC4, size: 0x8, addend: 0x0, symName: __ZNSt3__114numeric_limitsIlE3maxB7v160006Ev, symObjAddr: 0x1904, symBinAddr: 0x100002E4C, symSize: 0x14 }
  - { offsetInCU: 0x11BED, offset: 0x11BED, size: 0x8, addend: 0x0, symName: __ZNKSt3__16__lessImmEclB7v160006ERKmS3_, symObjAddr: 0x196C, symBinAddr: 0x100002EB4, symSize: 0x34 }
  - { offsetInCU: 0x11C2F, offset: 0x11C2F, size: 0x8, addend: 0x0, symName: __ZNKSt3__19allocatorINS_10shared_ptrI4TileEEE8max_sizeB7v160006Ev, symObjAddr: 0x19A0, symBinAddr: 0x100002EE8, symSize: 0x14 }
  - { offsetInCU: 0x11C55, offset: 0x11C55, size: 0x8, addend: 0x0, symName: __ZNKSt3__117__compressed_pairIPNS_10shared_ptrI4TileEENS_9allocatorIS3_EEE6secondB7v160006Ev, symObjAddr: 0x19B4, symBinAddr: 0x100002EFC, symSize: 0x24 }
  - { offsetInCU: 0x11C7B, offset: 0x11C7B, size: 0x8, addend: 0x0, symName: __ZNKSt3__122__compressed_pair_elemINS_9allocatorINS_10shared_ptrI4TileEEEELi1ELb1EE5__getB7v160006Ev, symObjAddr: 0x19D8, symBinAddr: 0x100002F20, symSize: 0x14 }
  - { offsetInCU: 0x11CA1, offset: 0x11CA1, size: 0x8, addend: 0x0, symName: __ZNSt3__123__libcpp_numeric_limitsIlLb1EE3maxB7v160006Ev, symObjAddr: 0x19EC, symBinAddr: 0x100002F34, symSize: 0x8 }
  - { offsetInCU: 0x11CB5, offset: 0x11CB5, size: 0x8, addend: 0x0, symName: __ZNSt12length_errorC1B7v160006EPKc, symObjAddr: 0x1A58, symBinAddr: 0x100002FA0, symSize: 0x34 }
  - { offsetInCU: 0x11CED, offset: 0x11CED, size: 0x8, addend: 0x0, symName: __ZNSt12length_errorC2B7v160006EPKc, symObjAddr: 0x1A8C, symBinAddr: 0x100002FD4, symSize: 0x4C }
  - { offsetInCU: 0x11D25, offset: 0x11D25, size: 0x8, addend: 0x0, symName: __ZNKSt3__16vectorINS_10shared_ptrI4TileEENS_9allocatorIS3_EEE9__end_capB7v160006Ev, symObjAddr: 0x1AD8, symBinAddr: 0x100003020, symSize: 0x28 }
  - { offsetInCU: 0x11D4B, offset: 0x11D4B, size: 0x8, addend: 0x0, symName: __ZNKSt3__117__compressed_pairIPNS_10shared_ptrI4TileEENS_9allocatorIS3_EEE5firstB7v160006Ev, symObjAddr: 0x1B00, symBinAddr: 0x100003048, symSize: 0x24 }
  - { offsetInCU: 0x11D71, offset: 0x11D71, size: 0x8, addend: 0x0, symName: __ZNKSt3__122__compressed_pair_elemIPNS_10shared_ptrI4TileEELi0ELb0EE5__getB7v160006Ev, symObjAddr: 0x1B24, symBinAddr: 0x10000306C, symSize: 0x14 }
  - { offsetInCU: 0x11D97, offset: 0x11D97, size: 0x8, addend: 0x0, symName: __ZNSt3__114__split_bufferINS_10shared_ptrI4TileEERNS_9allocatorIS3_EEEC2EmmS6_, symObjAddr: 0x1B8C, symBinAddr: 0x1000030D4, symSize: 0xD4 }
  - { offsetInCU: 0x11E0A, offset: 0x11E0A, size: 0x8, addend: 0x0, symName: __ZNSt3__117__compressed_pairIPNS_10shared_ptrI4TileEERNS_9allocatorIS3_EEEC1B7v160006IDnS7_EEOT_OT0_, symObjAddr: 0x1C60, symBinAddr: 0x1000031A8, symSize: 0x3C }
  - { offsetInCU: 0x11E62, offset: 0x11E62, size: 0x8, addend: 0x0, symName: __ZNSt3__114__split_bufferINS_10shared_ptrI4TileEERNS_9allocatorIS3_EEE7__allocB7v160006Ev, symObjAddr: 0x1CDC, symBinAddr: 0x100003224, symSize: 0x28 }
  - { offsetInCU: 0x11E88, offset: 0x11E88, size: 0x8, addend: 0x0, symName: __ZNSt3__114__split_bufferINS_10shared_ptrI4TileEERNS_9allocatorIS3_EEE9__end_capB7v160006Ev, symObjAddr: 0x1D04, symBinAddr: 0x10000324C, symSize: 0x28 }
  - { offsetInCU: 0x11EAE, offset: 0x11EAE, size: 0x8, addend: 0x0, symName: __ZNSt3__117__compressed_pairIPNS_10shared_ptrI4TileEERNS_9allocatorIS3_EEEC2B7v160006IDnS7_EEOT_OT0_, symObjAddr: 0x1D2C, symBinAddr: 0x100003274, symSize: 0x48 }
  - { offsetInCU: 0x11F06, offset: 0x11F06, size: 0x8, addend: 0x0, symName: __ZNSt3__122__compressed_pair_elemIRNS_9allocatorINS_10shared_ptrI4TileEEEELi1ELb0EEC2B7v160006IS6_vEEOT_, symObjAddr: 0x1D74, symBinAddr: 0x1000032BC, symSize: 0x20 }
  - { offsetInCU: 0x11F48, offset: 0x11F48, size: 0x8, addend: 0x0, symName: __ZNSt3__19allocatorINS_10shared_ptrI4TileEEE8allocateB7v160006Em, symObjAddr: 0x1D94, symBinAddr: 0x1000032DC, symSize: 0x58 }
  - { offsetInCU: 0x11F7C, offset: 0x11F7C, size: 0x8, addend: 0x0, symName: __ZNSt3__117__compressed_pairIPNS_10shared_ptrI4TileEERNS_9allocatorIS3_EEE6secondB7v160006Ev, symObjAddr: 0x1EF0, symBinAddr: 0x100003438, symSize: 0x28 }
  - { offsetInCU: 0x11FA2, offset: 0x11FA2, size: 0x8, addend: 0x0, symName: __ZNSt3__122__compressed_pair_elemIRNS_9allocatorINS_10shared_ptrI4TileEEEELi1ELb0EE5__getB7v160006Ev, symObjAddr: 0x1F18, symBinAddr: 0x100003460, symSize: 0x18 }
  - { offsetInCU: 0x11FC8, offset: 0x11FC8, size: 0x8, addend: 0x0, symName: __ZNSt3__117__compressed_pairIPNS_10shared_ptrI4TileEERNS_9allocatorIS3_EEE5firstB7v160006Ev, symObjAddr: 0x1F30, symBinAddr: 0x100003478, symSize: 0x24 }
  - { offsetInCU: 0x11FEE, offset: 0x11FEE, size: 0x8, addend: 0x0, symName: __ZNKSt3__16vectorINS_10shared_ptrI4TileEENS_9allocatorIS3_EEE17__annotate_deleteB7v160006Ev, symObjAddr: 0x1F54, symBinAddr: 0x10000349C, symSize: 0xB8 }
  - { offsetInCU: 0x12014, offset: 0x12014, size: 0x8, addend: 0x0, symName: __ZNSt3__116reverse_iteratorIPNS_10shared_ptrI4TileEEEC1B7v160006ES4_, symObjAddr: 0x2138, symBinAddr: 0x100003680, symSize: 0x34 }
  - { offsetInCU: 0x1204C, offset: 0x1204C, size: 0x8, addend: 0x0, symName: __ZNKSt3__116reverse_iteratorIPNS_10shared_ptrI4TileEEE4baseB7v160006Ev, symObjAddr: 0x216C, symBinAddr: 0x1000036B4, symSize: 0x18 }
  - { offsetInCU: 0x12072, offset: 0x12072, size: 0x8, addend: 0x0, symName: __ZNKSt3__16vectorINS_10shared_ptrI4TileEENS_9allocatorIS3_EEE14__annotate_newB7v160006Em, symObjAddr: 0x21C0, symBinAddr: 0x100003708, symSize: 0xAC }
  - { offsetInCU: 0x120A7, offset: 0x120A7, size: 0x8, addend: 0x0, symName: __ZNKSt3__16vectorINS_10shared_ptrI4TileEENS_9allocatorIS3_EEE31__annotate_contiguous_containerB7v160006EPKvS8_S8_S8_, symObjAddr: 0x227C, symBinAddr: 0x1000037C4, symSize: 0x20 }
  - { offsetInCU: 0x120F9, offset: 0x120F9, size: 0x8, addend: 0x0, symName: __ZNKSt3__16vectorINS_10shared_ptrI4TileEENS_9allocatorIS3_EEE4dataB7v160006Ev, symObjAddr: 0x229C, symBinAddr: 0x1000037E4, symSize: 0x28 }
  - { offsetInCU: 0x1211F, offset: 0x1211F, size: 0x8, addend: 0x0, symName: __ZNSt3__129_AllocatorDestroyRangeReverseINS_9allocatorINS_10shared_ptrI4TileEEEENS_16reverse_iteratorIPS4_EEEC1B7v160006ERS5_RS8_SB_, symObjAddr: 0x2310, symBinAddr: 0x100003858, symSize: 0x44 }
  - { offsetInCU: 0x12176, offset: 0x12176, size: 0x8, addend: 0x0, symName: __ZNKSt3__116reverse_iteratorIPNS_10shared_ptrI4TileEEEdeB7v160006Ev, symObjAddr: 0x23C0, symBinAddr: 0x100003908, symSize: 0x28 }
  - { offsetInCU: 0x121AA, offset: 0x121AA, size: 0x8, addend: 0x0, symName: __ZNSt3__116reverse_iteratorIPNS_10shared_ptrI4TileEEEppB7v160006Ev, symObjAddr: 0x23E8, symBinAddr: 0x100003930, symSize: 0x20 }
  - { offsetInCU: 0x121D0, offset: 0x121D0, size: 0x8, addend: 0x0, symName: __ZNSt3__128__exception_guard_exceptionsINS_29_AllocatorDestroyRangeReverseINS_9allocatorINS_10shared_ptrI4TileEEEENS_16reverse_iteratorIPS5_EEEEE10__completeB7v160006Ev, symObjAddr: 0x2408, symBinAddr: 0x100003950, symSize: 0x1C }
  - { offsetInCU: 0x121F6, offset: 0x121F6, size: 0x8, addend: 0x0, symName: __ZNSt3__128__exception_guard_exceptionsINS_29_AllocatorDestroyRangeReverseINS_9allocatorINS_10shared_ptrI4TileEEEENS_16reverse_iteratorIPS5_EEEEED1B7v160006Ev, symObjAddr: 0x2424, symBinAddr: 0x10000396C, symSize: 0x2C }
  - { offsetInCU: 0x12220, offset: 0x12220, size: 0x8, addend: 0x0, symName: __ZNSt3__128__exception_guard_exceptionsINS_29_AllocatorDestroyRangeReverseINS_9allocatorINS_10shared_ptrI4TileEEEENS_16reverse_iteratorIPS5_EEEEEC1B7v160006ESA_, symObjAddr: 0x2450, symBinAddr: 0x100003998, symSize: 0x34 }
  - { offsetInCU: 0x12259, offset: 0x12259, size: 0x8, addend: 0x0, symName: __ZNSt3__128__exception_guard_exceptionsINS_29_AllocatorDestroyRangeReverseINS_9allocatorINS_10shared_ptrI4TileEEEENS_16reverse_iteratorIPS5_EEEEEC2B7v160006ESA_, symObjAddr: 0x2484, symBinAddr: 0x1000039CC, symSize: 0x30 }
  - { offsetInCU: 0x12292, offset: 0x12292, size: 0x8, addend: 0x0, symName: __ZNSt3__129_AllocatorDestroyRangeReverseINS_9allocatorINS_10shared_ptrI4TileEEEENS_16reverse_iteratorIPS4_EEEC2B7v160006ERS5_RS8_SB_, symObjAddr: 0x24B4, symBinAddr: 0x1000039FC, symSize: 0x38 }
  - { offsetInCU: 0x122EF, offset: 0x122EF, size: 0x8, addend: 0x0, symName: __ZNSt3__119__to_address_helperINS_16reverse_iteratorIPNS_10shared_ptrI4TileEEEEvE6__callB7v160006ERKS6_, symObjAddr: 0x24EC, symBinAddr: 0x100003A34, symSize: 0x38 }
  - { offsetInCU: 0x12312, offset: 0x12312, size: 0x8, addend: 0x0, symName: __ZNKSt3__116reverse_iteratorIPNS_10shared_ptrI4TileEEEptB7v160006Ev, symObjAddr: 0x2524, symBinAddr: 0x100003A6C, symSize: 0x24 }
  - { offsetInCU: 0x12338, offset: 0x12338, size: 0x8, addend: 0x0, symName: __ZNSt3__128__exception_guard_exceptionsINS_29_AllocatorDestroyRangeReverseINS_9allocatorINS_10shared_ptrI4TileEEEENS_16reverse_iteratorIPS5_EEEEED2B7v160006Ev, symObjAddr: 0x2548, symBinAddr: 0x100003A90, symSize: 0x50 }
  - { offsetInCU: 0x12362, offset: 0x12362, size: 0x8, addend: 0x0, symName: __ZNKSt3__129_AllocatorDestroyRangeReverseINS_9allocatorINS_10shared_ptrI4TileEEEENS_16reverse_iteratorIPS4_EEEclB7v160006Ev, symObjAddr: 0x2598, symBinAddr: 0x100003AE0, symSize: 0xB4 }
  - { offsetInCU: 0x12389, offset: 0x12389, size: 0x8, addend: 0x0, symName: __ZNSt3__116reverse_iteratorINS0_IPNS_10shared_ptrI4TileEEEEEC1B7v160006ES5_, symObjAddr: 0x26BC, symBinAddr: 0x100003C04, symSize: 0x3C }
  - { offsetInCU: 0x123C1, offset: 0x123C1, size: 0x8, addend: 0x0, symName: __ZNSt3__116allocator_traitsINS_9allocatorINS_10shared_ptrI4TileEEEEE7destroyB7v160006IS4_vEEvRS5_PT_, symObjAddr: 0x2758, symBinAddr: 0x100003CA0, symSize: 0x2C }
  - { offsetInCU: 0x123FE, offset: 0x123FE, size: 0x8, addend: 0x0, symName: __ZNSt3__116reverse_iteratorINS0_IPNS_10shared_ptrI4TileEEEEEppB7v160006Ev, symObjAddr: 0x27A8, symBinAddr: 0x100003CF0, symSize: 0x30 }
  - { offsetInCU: 0x12424, offset: 0x12424, size: 0x8, addend: 0x0, symName: __ZNKSt3__116reverse_iteratorINS0_IPNS_10shared_ptrI4TileEEEEE4baseB7v160006Ev, symObjAddr: 0x27D8, symBinAddr: 0x100003D20, symSize: 0x24 }
  - { offsetInCU: 0x1244A, offset: 0x1244A, size: 0x8, addend: 0x0, symName: __ZNSt3__19allocatorINS_10shared_ptrI4TileEEE7destroyB7v160006EPS3_, symObjAddr: 0x27FC, symBinAddr: 0x100003D44, symSize: 0x28 }
  - { offsetInCU: 0x12484, offset: 0x12484, size: 0x8, addend: 0x0, symName: __ZNSt3__119__to_address_helperINS_16reverse_iteratorINS1_IPNS_10shared_ptrI4TileEEEEEEvE6__callB7v160006ERKS7_, symObjAddr: 0x2824, symBinAddr: 0x100003D6C, symSize: 0x38 }
  - { offsetInCU: 0x124A7, offset: 0x124A7, size: 0x8, addend: 0x0, symName: __ZNKSt3__116reverse_iteratorINS0_IPNS_10shared_ptrI4TileEEEEEptB7v160006Ev, symObjAddr: 0x285C, symBinAddr: 0x100003DA4, symSize: 0x24 }
  - { offsetInCU: 0x124CD, offset: 0x124CD, size: 0x8, addend: 0x0, symName: __ZNKSt3__116reverse_iteratorINS0_IPNS_10shared_ptrI4TileEEEEEdeB7v160006Ev, symObjAddr: 0x2880, symBinAddr: 0x100003DC8, symSize: 0x34 }
  - { offsetInCU: 0x12501, offset: 0x12501, size: 0x8, addend: 0x0, symName: __ZNSt3__116reverse_iteratorIPNS_10shared_ptrI4TileEEEmmB7v160006Ev, symObjAddr: 0x28B4, symBinAddr: 0x100003DFC, symSize: 0x20 }
  - { offsetInCU: 0x12527, offset: 0x12527, size: 0x8, addend: 0x0, symName: __ZNSt3__116reverse_iteratorINS0_IPNS_10shared_ptrI4TileEEEEEC2B7v160006ES5_, symObjAddr: 0x28D4, symBinAddr: 0x100003E1C, symSize: 0x2C }
  - { offsetInCU: 0x1255F, offset: 0x1255F, size: 0x8, addend: 0x0, symName: __ZNSt3__116reverse_iteratorIPNS_10shared_ptrI4TileEEEC2B7v160006ES4_, symObjAddr: 0x2900, symBinAddr: 0x100003E48, symSize: 0x28 }
  - { offsetInCU: 0x12597, offset: 0x12597, size: 0x8, addend: 0x0, symName: __ZNSt3__114__split_bufferINS_10shared_ptrI4TileEERNS_9allocatorIS3_EEED2Ev, symObjAddr: 0x2928, symBinAddr: 0x100003E70, symSize: 0x8C }
  - { offsetInCU: 0x125C3, offset: 0x125C3, size: 0x8, addend: 0x0, symName: __ZNSt3__114__split_bufferINS_10shared_ptrI4TileEERNS_9allocatorIS3_EEE5clearB7v160006Ev, symObjAddr: 0x29B4, symBinAddr: 0x100003EFC, symSize: 0x28 }
  - { offsetInCU: 0x125E9, offset: 0x125E9, size: 0x8, addend: 0x0, symName: __ZNSt3__116allocator_traitsINS_9allocatorINS_10shared_ptrI4TileEEEEE10deallocateB7v160006ERS5_PS4_m, symObjAddr: 0x29DC, symBinAddr: 0x100003F24, symSize: 0x34 }
  - { offsetInCU: 0x1262B, offset: 0x1262B, size: 0x8, addend: 0x0, symName: __ZNKSt3__114__split_bufferINS_10shared_ptrI4TileEERNS_9allocatorIS3_EEE8capacityB7v160006Ev, symObjAddr: 0x2A10, symBinAddr: 0x100003F58, symSize: 0x40 }
  - { offsetInCU: 0x12651, offset: 0x12651, size: 0x8, addend: 0x0, symName: __ZNSt3__114__split_bufferINS_10shared_ptrI4TileEERNS_9allocatorIS3_EEE17__destruct_at_endB7v160006EPS3_, symObjAddr: 0x2A50, symBinAddr: 0x100003F98, symSize: 0x2C }
  - { offsetInCU: 0x12685, offset: 0x12685, size: 0x8, addend: 0x0, symName: __ZNSt3__114__split_bufferINS_10shared_ptrI4TileEERNS_9allocatorIS3_EEE17__destruct_at_endB7v160006EPS3_NS_17integral_constantIbLb0EEE, symObjAddr: 0x2A7C, symBinAddr: 0x100003FC4, symSize: 0x80 }
  - { offsetInCU: 0x126C6, offset: 0x126C6, size: 0x8, addend: 0x0, symName: __ZNSt3__19allocatorINS_10shared_ptrI4TileEEE10deallocateB7v160006EPS3_m, symObjAddr: 0x2AFC, symBinAddr: 0x100004044, symSize: 0x40 }
  - { offsetInCU: 0x12708, offset: 0x12708, size: 0x8, addend: 0x0, symName: __ZNKSt3__114__split_bufferINS_10shared_ptrI4TileEERNS_9allocatorIS3_EEE9__end_capB7v160006Ev, symObjAddr: 0x2C44, symBinAddr: 0x10000418C, symSize: 0x28 }
  - { offsetInCU: 0x1272E, offset: 0x1272E, size: 0x8, addend: 0x0, symName: __ZNKSt3__117__compressed_pairIPNS_10shared_ptrI4TileEERNS_9allocatorIS3_EEE5firstB7v160006Ev, symObjAddr: 0x2C6C, symBinAddr: 0x1000041B4, symSize: 0x24 }
  - { offsetInCU: 0x12754, offset: 0x12754, size: 0x8, addend: 0x0, symName: __ZNSt3__19allocatorI4TileEC1B7v160006Ev, symObjAddr: 0x2D20, symBinAddr: 0x100004268, symSize: 0x2C }
  - { offsetInCU: 0x127BD, offset: 0x127BD, size: 0x8, addend: 0x0, symName: __ZNSt3__118__allocation_guardINS_9allocatorINS_20__shared_ptr_emplaceI4TileNS1_IS3_EEEEEEEC1B7v160006IS4_EET_m, symObjAddr: 0x2D4C, symBinAddr: 0x100004294, symSize: 0x34 }
  - { offsetInCU: 0x1280C, offset: 0x1280C, size: 0x8, addend: 0x0, symName: __ZNKSt3__118__allocation_guardINS_9allocatorINS_20__shared_ptr_emplaceI4TileNS1_IS3_EEEEEEE5__getB7v160006Ev, symObjAddr: 0x2D80, symBinAddr: 0x1000042C8, symSize: 0x18 }
  - { offsetInCU: 0x12832, offset: 0x12832, size: 0x8, addend: 0x0, symName: __ZNSt3__120__shared_ptr_emplaceI4TileNS_9allocatorIS1_EEEC1B7v160006IJEEES3_DpOT_, symObjAddr: 0x2D98, symBinAddr: 0x1000042E0, symSize: 0x2C }
  - { offsetInCU: 0x12870, offset: 0x12870, size: 0x8, addend: 0x0, symName: __ZNSt3__118__allocation_guardINS_9allocatorINS_20__shared_ptr_emplaceI4TileNS1_IS3_EEEEEEE13__release_ptrB7v160006Ev, symObjAddr: 0x2DC4, symBinAddr: 0x10000430C, symSize: 0x24 }
  - { offsetInCU: 0x128A4, offset: 0x128A4, size: 0x8, addend: 0x0, symName: __ZNSt3__110shared_ptrI4TileE27__create_with_control_blockB7v160006IS1_NS_20__shared_ptr_emplaceIS1_NS_9allocatorIS1_EEEEEES2_PT_PT0_, symObjAddr: 0x2DE8, symBinAddr: 0x100004330, symSize: 0xA4 }
  - { offsetInCU: 0x128F9, offset: 0x128F9, size: 0x8, addend: 0x0, symName: __ZNSt3__120__shared_ptr_emplaceI4TileNS_9allocatorIS1_EEE10__get_elemB7v160006Ev, symObjAddr: 0x2E8C, symBinAddr: 0x1000043D4, symSize: 0x28 }
  - { offsetInCU: 0x1291F, offset: 0x1291F, size: 0x8, addend: 0x0, symName: __ZNSt3__118__allocation_guardINS_9allocatorINS_20__shared_ptr_emplaceI4TileNS1_IS3_EEEEEEED1B7v160006Ev, symObjAddr: 0x2EB4, symBinAddr: 0x1000043FC, symSize: 0x2C }
  - { offsetInCU: 0x12949, offset: 0x12949, size: 0x8, addend: 0x0, symName: __ZNSt3__118__allocation_guardINS_9allocatorINS_20__shared_ptr_emplaceI4TileNS1_IS3_EEEEEEEC2B7v160006IS4_EET_m, symObjAddr: 0x2EE0, symBinAddr: 0x100004428, symSize: 0x50 }
  - { offsetInCU: 0x12998, offset: 0x12998, size: 0x8, addend: 0x0, symName: __ZNSt3__19allocatorINS_20__shared_ptr_emplaceI4TileNS0_IS2_EEEEEC1B7v160006IS2_EERKNS0_IT_EE, symObjAddr: 0x2F30, symBinAddr: 0x100004478, symSize: 0x34 }
  - { offsetInCU: 0x129D6, offset: 0x129D6, size: 0x8, addend: 0x0, symName: __ZNSt3__116allocator_traitsINS_9allocatorINS_20__shared_ptr_emplaceI4TileNS1_IS3_EEEEEEE8allocateB7v160006ERS6_m, symObjAddr: 0x2F64, symBinAddr: 0x1000044AC, symSize: 0x2C }
  - { offsetInCU: 0x12A09, offset: 0x12A09, size: 0x8, addend: 0x0, symName: __ZNSt3__19allocatorINS_20__shared_ptr_emplaceI4TileNS0_IS2_EEEEEC2B7v160006IS2_EERKNS0_IT_EE, symObjAddr: 0x2F90, symBinAddr: 0x1000044D8, symSize: 0x30 }
  - { offsetInCU: 0x12A47, offset: 0x12A47, size: 0x8, addend: 0x0, symName: __ZNSt3__116__non_trivial_ifILb1ENS_9allocatorINS_20__shared_ptr_emplaceI4TileNS1_IS3_EEEEEEEC2B7v160006Ev, symObjAddr: 0x2FC0, symBinAddr: 0x100004508, symSize: 0x14 }
  - { offsetInCU: 0x12A71, offset: 0x12A71, size: 0x8, addend: 0x0, symName: __ZNSt3__19allocatorINS_20__shared_ptr_emplaceI4TileNS0_IS2_EEEEE8allocateB7v160006Em, symObjAddr: 0x2FD4, symBinAddr: 0x10000451C, symSize: 0x58 }
  - { offsetInCU: 0x12AB0, offset: 0x12AB0, size: 0x8, addend: 0x0, symName: __ZNSt3__116allocator_traitsINS_9allocatorINS_20__shared_ptr_emplaceI4TileNS1_IS3_EEEEEEE8max_sizeB7v160006IS6_vEEmRKS6_, symObjAddr: 0x302C, symBinAddr: 0x100004574, symSize: 0x24 }
  - { offsetInCU: 0x12ADE, offset: 0x12ADE, size: 0x8, addend: 0x0, symName: __ZNKSt3__19allocatorINS_20__shared_ptr_emplaceI4TileNS0_IS2_EEEEE8max_sizeB7v160006Ev, symObjAddr: 0x3050, symBinAddr: 0x100004598, symSize: 0x14 }
  - { offsetInCU: 0x12B04, offset: 0x12B04, size: 0x8, addend: 0x0, symName: __ZNSt3__120__shared_ptr_emplaceI4TileNS_9allocatorIS1_EEEC2B7v160006IJEEES3_DpOT_, symObjAddr: 0x3064, symBinAddr: 0x1000045AC, symSize: 0xB0 }
  - { offsetInCU: 0x12B42, offset: 0x12B42, size: 0x8, addend: 0x0, symName: __ZNSt3__119__shared_weak_countC2B7v160006El, symObjAddr: 0x3114, symBinAddr: 0x10000465C, symSize: 0x54 }
  - { offsetInCU: 0x12B7A, offset: 0x12B7A, size: 0x8, addend: 0x0, symName: __ZNSt3__120__shared_ptr_emplaceI4TileNS_9allocatorIS1_EEE8_StorageC1B7v160006EOS3_, symObjAddr: 0x3168, symBinAddr: 0x1000046B0, symSize: 0x34 }
  - { offsetInCU: 0x12BB3, offset: 0x12BB3, size: 0x8, addend: 0x0, symName: __ZN4TileC1Ev, symObjAddr: 0x319C, symBinAddr: 0x1000046E4, symSize: 0x2C }
  - { offsetInCU: 0x12BDD, offset: 0x12BDD, size: 0x8, addend: 0x0, symName: __ZNSt3__120__shared_ptr_emplaceI4TileNS_9allocatorIS1_EEE8_StorageD1B7v160006Ev, symObjAddr: 0x31C8, symBinAddr: 0x100004710, symSize: 0x2C }
  - { offsetInCU: 0x12C07, offset: 0x12C07, size: 0x8, addend: 0x0, symName: __ZNSt3__120__shared_ptr_emplaceI4TileNS_9allocatorIS1_EEED1Ev, symObjAddr: 0x31F4, symBinAddr: 0x10000473C, symSize: 0x2C }
  - { offsetInCU: 0x12C34, offset: 0x12C34, size: 0x8, addend: 0x0, symName: __ZNSt3__120__shared_ptr_emplaceI4TileNS_9allocatorIS1_EEED0Ev, symObjAddr: 0x3220, symBinAddr: 0x100004768, symSize: 0x30 }
  - { offsetInCU: 0x12C61, offset: 0x12C61, size: 0x8, addend: 0x0, symName: __ZNSt3__120__shared_ptr_emplaceI4TileNS_9allocatorIS1_EEE16__on_zero_sharedEv, symObjAddr: 0x3250, symBinAddr: 0x100004798, symSize: 0x28 }
  - { offsetInCU: 0x12C87, offset: 0x12C87, size: 0x8, addend: 0x0, symName: __ZNSt3__120__shared_ptr_emplaceI4TileNS_9allocatorIS1_EEE21__on_zero_shared_weakEv, symObjAddr: 0x3278, symBinAddr: 0x1000047C0, symSize: 0x5C }
  - { offsetInCU: 0x12CC8, offset: 0x12CC8, size: 0x8, addend: 0x0, symName: __ZNSt3__114__shared_countC2B7v160006El, symObjAddr: 0x32D4, symBinAddr: 0x10000481C, symSize: 0x30 }
  - { offsetInCU: 0x12D00, offset: 0x12D00, size: 0x8, addend: 0x0, symName: __ZNSt3__120__shared_ptr_emplaceI4TileNS_9allocatorIS1_EEE8_StorageC2B7v160006EOS3_, symObjAddr: 0x3304, symBinAddr: 0x10000484C, symSize: 0x30 }
  - { offsetInCU: 0x12D39, offset: 0x12D39, size: 0x8, addend: 0x0, symName: __ZNSt3__120__shared_ptr_emplaceI4TileNS_9allocatorIS1_EEE8_Storage11__get_allocEv, symObjAddr: 0x3334, symBinAddr: 0x10000487C, symSize: 0x3C }
  - { offsetInCU: 0x12D8C, offset: 0x12D8C, size: 0x8, addend: 0x0, symName: __ZNSt3__117__compressed_pairINS_9allocatorI4TileEES2_E16__get_first_baseB7v160006EPS4_, symObjAddr: 0x3370, symBinAddr: 0x1000048B8, symSize: 0x14 }
  - { offsetInCU: 0x12DAF, offset: 0x12DAF, size: 0x8, addend: 0x0, symName: __ZN4TileC2Ev, symObjAddr: 0x3384, symBinAddr: 0x1000048CC, symSize: 0x70 }
  - { offsetInCU: 0x12DED, offset: 0x12DED, size: 0x8, addend: 0x0, symName: __ZNSt3__120__shared_ptr_emplaceI4TileNS_9allocatorIS1_EEE8_StorageD2B7v160006Ev, symObjAddr: 0x33F4, symBinAddr: 0x10000493C, symSize: 0x2C }
  - { offsetInCU: 0x12E17, offset: 0x12E17, size: 0x8, addend: 0x0, symName: __ZNSt3__120__shared_ptr_emplaceI4TileNS_9allocatorIS1_EEED2Ev, symObjAddr: 0x3420, symBinAddr: 0x100004968, symSize: 0x48 }
  - { offsetInCU: 0x12E44, offset: 0x12E44, size: 0x8, addend: 0x0, symName: __ZN4TileD1Ev, symObjAddr: 0x3468, symBinAddr: 0x1000049B0, symSize: 0x2C }
  - { offsetInCU: 0x12E70, offset: 0x12E70, size: 0x8, addend: 0x0, symName: __ZN4TileD2Ev, symObjAddr: 0x3494, symBinAddr: 0x1000049DC, symSize: 0x2C }
  - { offsetInCU: 0x12E9C, offset: 0x12E9C, size: 0x8, addend: 0x0, symName: __ZNSt3__120__shared_ptr_emplaceI4TileNS_9allocatorIS1_EEE11__get_allocB7v160006Ev, symObjAddr: 0x34C0, symBinAddr: 0x100004A08, symSize: 0x28 }
  - { offsetInCU: 0x12EC2, offset: 0x12EC2, size: 0x8, addend: 0x0, symName: __ZNSt3__116allocator_traitsINS_9allocatorINS_20__shared_ptr_emplaceI4TileNS1_IS3_EEEEEEE10deallocateB7v160006ERS6_PS5_m, symObjAddr: 0x34E8, symBinAddr: 0x100004A30, symSize: 0x34 }
  - { offsetInCU: 0x12F04, offset: 0x12F04, size: 0x8, addend: 0x0, symName: __ZNSt3__114pointer_traitsIPNS_20__shared_ptr_emplaceI4TileNS_9allocatorIS2_EEEEE10pointer_toB7v160006ERS5_, symObjAddr: 0x351C, symBinAddr: 0x100004A64, symSize: 0x14 }
  - { offsetInCU: 0x12F27, offset: 0x12F27, size: 0x8, addend: 0x0, symName: __ZNSt3__19allocatorINS_20__shared_ptr_emplaceI4TileNS0_IS2_EEEEE10deallocateB7v160006EPS4_m, symObjAddr: 0x3530, symBinAddr: 0x100004A78, symSize: 0x40 }
  - { offsetInCU: 0x12F69, offset: 0x12F69, size: 0x8, addend: 0x0, symName: __ZNSt3__110shared_ptrI4TileE18__enable_weak_thisB7v160006Ez, symObjAddr: 0x3570, symBinAddr: 0x100004AB8, symSize: 0x10 }
  - { offsetInCU: 0x12F90, offset: 0x12F90, size: 0x8, addend: 0x0, symName: __ZNSt3__120__shared_ptr_emplaceI4TileNS_9allocatorIS1_EEE8_Storage10__get_elemEv, symObjAddr: 0x3580, symBinAddr: 0x100004AC8, symSize: 0x3C }
  - { offsetInCU: 0x12FE3, offset: 0x12FE3, size: 0x8, addend: 0x0, symName: __ZNSt3__117__compressed_pairINS_9allocatorI4TileEES2_E17__get_second_baseB7v160006EPS4_, symObjAddr: 0x35BC, symBinAddr: 0x100004B04, symSize: 0x14 }
  - { offsetInCU: 0x13006, offset: 0x13006, size: 0x8, addend: 0x0, symName: __ZNSt3__118__allocation_guardINS_9allocatorINS_20__shared_ptr_emplaceI4TileNS1_IS3_EEEEEEED2B7v160006Ev, symObjAddr: 0x35D0, symBinAddr: 0x100004B18, symSize: 0x58 }
  - { offsetInCU: 0x13030, offset: 0x13030, size: 0x8, addend: 0x0, symName: __ZNSt3__19allocatorI4TileEC2B7v160006Ev, symObjAddr: 0x3628, symBinAddr: 0x100004B70, symSize: 0x2C }
  - { offsetInCU: 0x1305A, offset: 0x1305A, size: 0x8, addend: 0x0, symName: __ZNSt3__116__non_trivial_ifILb1ENS_9allocatorI4TileEEEC2B7v160006Ev, symObjAddr: 0x3654, symBinAddr: 0x100004B9C, symSize: 0x14 }
  - { offsetInCU: 0x13084, offset: 0x13084, size: 0x8, addend: 0x0, symName: __ZNKSt3__16vectorINS_10shared_ptrI4TileEENS_9allocatorIS3_EEE20__throw_out_of_rangeB7v160006Ev, symObjAddr: 0x3668, symBinAddr: 0x100004BB0, symSize: 0x1C }
  - { offsetInCU: 0x130AA, offset: 0x130AA, size: 0x8, addend: 0x0, symName: __ZNSt12out_of_rangeC1B7v160006EPKc, symObjAddr: 0x36E8, symBinAddr: 0x100004C30, symSize: 0x34 }
  - { offsetInCU: 0x130E2, offset: 0x130E2, size: 0x8, addend: 0x0, symName: __ZNSt12out_of_rangeC2B7v160006EPKc, symObjAddr: 0x371C, symBinAddr: 0x100004C64, symSize: 0x4C }
  - { offsetInCU: 0x1311A, offset: 0x1311A, size: 0x8, addend: 0x0, symName: __ZNSt3__110shared_ptrI4TileEC1B7v160006ERKS2_, symObjAddr: 0x3768, symBinAddr: 0x100004CB0, symSize: 0x34 }
  - { offsetInCU: 0x13153, offset: 0x13153, size: 0x8, addend: 0x0, symName: __ZNSt3__110shared_ptrI4TileE4swapB7v160006ERS2_, symObjAddr: 0x379C, symBinAddr: 0x100004CE4, symSize: 0x44 }
  - { offsetInCU: 0x13188, offset: 0x13188, size: 0x8, addend: 0x0, symName: __ZNSt3__110shared_ptrI4TileEC2B7v160006ERKS2_, symObjAddr: 0x37E0, symBinAddr: 0x100004D28, symSize: 0x70 }
  - { offsetInCU: 0x131C1, offset: 0x131C1, size: 0x8, addend: 0x0, symName: __ZNSt3__119__shared_weak_count12__add_sharedB7v160006Ev, symObjAddr: 0x3850, symBinAddr: 0x100004D98, symSize: 0x24 }
  - { offsetInCU: 0x131E7, offset: 0x131E7, size: 0x8, addend: 0x0, symName: __ZNSt3__114__shared_count12__add_sharedB7v160006Ev, symObjAddr: 0x3874, symBinAddr: 0x100004DBC, symSize: 0x28 }
  - { offsetInCU: 0x1320D, offset: 0x1320D, size: 0x8, addend: 0x0, symName: __ZNSt3__16vectorIlNS_9allocatorIlEEED2B7v160006Ev, symObjAddr: 0x3944, symBinAddr: 0x100004E8C, symSize: 0x44 }
  - { offsetInCU: 0x13237, offset: 0x13237, size: 0x8, addend: 0x0, symName: __ZNSt3__16vectorIlNS_9allocatorIlEEE16__destroy_vectorC1ERS3_, symObjAddr: 0x3988, symBinAddr: 0x100004ED0, symSize: 0x34 }
  - { offsetInCU: 0x13270, offset: 0x13270, size: 0x8, addend: 0x0, symName: __ZNSt3__16vectorIlNS_9allocatorIlEEE16__destroy_vectorclB7v160006Ev, symObjAddr: 0x39BC, symBinAddr: 0x100004F04, symSize: 0x9C }
  - { offsetInCU: 0x13296, offset: 0x13296, size: 0x8, addend: 0x0, symName: __ZNSt3__16vectorIlNS_9allocatorIlEEE16__destroy_vectorC2ERS3_, symObjAddr: 0x3A58, symBinAddr: 0x100004FA0, symSize: 0x20 }
  - { offsetInCU: 0x132CF, offset: 0x132CF, size: 0x8, addend: 0x0, symName: __ZNKSt3__16vectorIlNS_9allocatorIlEEE17__annotate_deleteB7v160006Ev, symObjAddr: 0x3A78, symBinAddr: 0x100004FC0, symSize: 0xB8 }
  - { offsetInCU: 0x132F5, offset: 0x132F5, size: 0x8, addend: 0x0, symName: __ZNSt3__16vectorIlNS_9allocatorIlEEE7__clearB7v160006Ev, symObjAddr: 0x3B40, symBinAddr: 0x100005088, symSize: 0x28 }
  - { offsetInCU: 0x1331B, offset: 0x1331B, size: 0x8, addend: 0x0, symName: __ZNSt3__116allocator_traitsINS_9allocatorIlEEE10deallocateB7v160006ERS2_Plm, symObjAddr: 0x3B68, symBinAddr: 0x1000050B0, symSize: 0x34 }
  - { offsetInCU: 0x1335D, offset: 0x1335D, size: 0x8, addend: 0x0, symName: __ZNSt3__16vectorIlNS_9allocatorIlEEE7__allocB7v160006Ev, symObjAddr: 0x3B9C, symBinAddr: 0x1000050E4, symSize: 0x28 }
  - { offsetInCU: 0x13383, offset: 0x13383, size: 0x8, addend: 0x0, symName: __ZNKSt3__16vectorIlNS_9allocatorIlEEE8capacityB7v160006Ev, symObjAddr: 0x3BC4, symBinAddr: 0x10000510C, symSize: 0x40 }
  - { offsetInCU: 0x133A9, offset: 0x133A9, size: 0x8, addend: 0x0, symName: __ZNKSt3__16vectorIlNS_9allocatorIlEEE31__annotate_contiguous_containerB7v160006EPKvS5_S5_S5_, symObjAddr: 0x3C04, symBinAddr: 0x10000514C, symSize: 0x20 }
  - { offsetInCU: 0x133FB, offset: 0x133FB, size: 0x8, addend: 0x0, symName: __ZNKSt3__16vectorIlNS_9allocatorIlEEE4dataB7v160006Ev, symObjAddr: 0x3C24, symBinAddr: 0x10000516C, symSize: 0x28 }
  - { offsetInCU: 0x13421, offset: 0x13421, size: 0x8, addend: 0x0, symName: __ZNKSt3__16vectorIlNS_9allocatorIlEEE4sizeB7v160006Ev, symObjAddr: 0x3C4C, symBinAddr: 0x100005194, symSize: 0x28 }
  - { offsetInCU: 0x13447, offset: 0x13447, size: 0x8, addend: 0x0, symName: __ZNSt3__16vectorIlNS_9allocatorIlEEE22__base_destruct_at_endB7v160006EPl, symObjAddr: 0x3C88, symBinAddr: 0x1000051D0, symSize: 0x8C }
  - { offsetInCU: 0x1348B, offset: 0x1348B, size: 0x8, addend: 0x0, symName: __ZNSt3__116allocator_traitsINS_9allocatorIlEEE7destroyB7v160006IlvEEvRS2_PT_, symObjAddr: 0x3D14, symBinAddr: 0x10000525C, symSize: 0x2C }
  - { offsetInCU: 0x134C8, offset: 0x134C8, size: 0x8, addend: 0x0, symName: __ZNSt3__19allocatorIlE7destroyB7v160006EPl, symObjAddr: 0x3D40, symBinAddr: 0x100005288, symSize: 0x14 }
  - { offsetInCU: 0x134FC, offset: 0x134FC, size: 0x8, addend: 0x0, symName: __ZNSt3__19allocatorIlE10deallocateB7v160006EPlm, symObjAddr: 0x3D54, symBinAddr: 0x10000529C, symSize: 0x40 }
  - { offsetInCU: 0x1353E, offset: 0x1353E, size: 0x8, addend: 0x0, symName: __ZNSt3__117__compressed_pairIPlNS_9allocatorIlEEE6secondB7v160006Ev, symObjAddr: 0x3D94, symBinAddr: 0x1000052DC, symSize: 0x24 }
  - { offsetInCU: 0x13564, offset: 0x13564, size: 0x8, addend: 0x0, symName: __ZNSt3__122__compressed_pair_elemINS_9allocatorIlEELi1ELb1EE5__getB7v160006Ev, symObjAddr: 0x3DB8, symBinAddr: 0x100005300, symSize: 0x14 }
  - { offsetInCU: 0x1358A, offset: 0x1358A, size: 0x8, addend: 0x0, symName: __ZNKSt3__16vectorIlNS_9allocatorIlEEE9__end_capB7v160006Ev, symObjAddr: 0x3DCC, symBinAddr: 0x100005314, symSize: 0x28 }
  - { offsetInCU: 0x135B0, offset: 0x135B0, size: 0x8, addend: 0x0, symName: __ZNKSt3__117__compressed_pairIPlNS_9allocatorIlEEE5firstB7v160006Ev, symObjAddr: 0x3DF4, symBinAddr: 0x10000533C, symSize: 0x24 }
  - { offsetInCU: 0x135D6, offset: 0x135D6, size: 0x8, addend: 0x0, symName: __ZNKSt3__122__compressed_pair_elemIPlLi0ELb0EE5__getB7v160006Ev, symObjAddr: 0x3E18, symBinAddr: 0x100005360, symSize: 0x14 }
  - { offsetInCU: 0x135FC, offset: 0x135FC, size: 0x8, addend: 0x0, symName: __ZNSt3__16vectorINS_10shared_ptrI4TileEENS_9allocatorIS3_EEED2B7v160006Ev, symObjAddr: 0x3E2C, symBinAddr: 0x100005374, symSize: 0x44 }
  - { offsetInCU: 0x13626, offset: 0x13626, size: 0x8, addend: 0x0, symName: __ZNSt3__16vectorINS_10shared_ptrI4TileEENS_9allocatorIS3_EEE16__destroy_vectorC1ERS6_, symObjAddr: 0x3E70, symBinAddr: 0x1000053B8, symSize: 0x34 }
  - { offsetInCU: 0x1365F, offset: 0x1365F, size: 0x8, addend: 0x0, symName: __ZNSt3__16vectorINS_10shared_ptrI4TileEENS_9allocatorIS3_EEE16__destroy_vectorclB7v160006Ev, symObjAddr: 0x3EA4, symBinAddr: 0x1000053EC, symSize: 0x9C }
  - { offsetInCU: 0x13685, offset: 0x13685, size: 0x8, addend: 0x0, symName: __ZNSt3__16vectorINS_10shared_ptrI4TileEENS_9allocatorIS3_EEE16__destroy_vectorC2ERS6_, symObjAddr: 0x3F40, symBinAddr: 0x100005488, symSize: 0x20 }
  - { offsetInCU: 0x136BE, offset: 0x136BE, size: 0x8, addend: 0x0, symName: __ZNSt3__16vectorINS_10shared_ptrI4TileEENS_9allocatorIS3_EEE7__clearB7v160006Ev, symObjAddr: 0x3F70, symBinAddr: 0x1000054B8, symSize: 0x28 }
  - { offsetInCU: 0x136E4, offset: 0x136E4, size: 0x8, addend: 0x0, symName: __ZNSt3__16vectorINS_10shared_ptrI4TileEENS_9allocatorIS3_EEE22__base_destruct_at_endB7v160006EPS3_, symObjAddr: 0x3F98, symBinAddr: 0x1000054E0, symSize: 0x8C }
  - { offsetInCU: 0x13728, offset: 0x13728, size: 0x8, addend: 0x0, symName: __ZNSt3__16vectorINS_10shared_ptrI4TileEENS_9allocatorIS3_EEE5frontB7v160006Ev, symObjAddr: 0x4024, symBinAddr: 0x10000556C, symSize: 0x18 }
  - { offsetInCU: 0x1374E, offset: 0x1374E, size: 0x8, addend: 0x0, symName: __ZNKSt3__110shared_ptrI4TileEptB7v160006Ev, symObjAddr: 0x4070, symBinAddr: 0x1000055B8, symSize: 0x18 }
  - { offsetInCU: 0x13774, offset: 0x13774, size: 0x8, addend: 0x0, symName: __ZN4Tile19assign_availibilityEi, symObjAddr: 0x4088, symBinAddr: 0x1000055D0, symSize: 0x20 }
  - { offsetInCU: 0x137A8, offset: 0x137A8, size: 0x8, addend: 0x0, symName: __ZNSt3__16vectorIlNS_9allocatorIlEEE9push_backB7v160006EOl, symObjAddr: 0x40A8, symBinAddr: 0x1000055F0, symSize: 0x6C }
  - { offsetInCU: 0x137DF, offset: 0x137DF, size: 0x8, addend: 0x0, symName: __ZNKSt3__110shared_ptrI4TileE3getB7v160006Ev, symObjAddr: 0x415C, symBinAddr: 0x1000056A4, symSize: 0x18 }
  - { offsetInCU: 0x13805, offset: 0x13805, size: 0x8, addend: 0x0, symName: __ZNSt3__16vectorIlNS_9allocatorIlEEE9__end_capB7v160006Ev, symObjAddr: 0x4174, symBinAddr: 0x1000056BC, symSize: 0x28 }
  - { offsetInCU: 0x13831, offset: 0x13831, size: 0x8, addend: 0x0, symName: __ZNSt3__16vectorIlNS_9allocatorIlEEE22__construct_one_at_endB7v160006IJlEEEvDpOT_, symObjAddr: 0x419C, symBinAddr: 0x1000056E4, symSize: 0x90 }
  - { offsetInCU: 0x13880, offset: 0x13880, size: 0x8, addend: 0x0, symName: __ZNSt3__16vectorIlNS_9allocatorIlEEE21__push_back_slow_pathIlEEvOT_, symObjAddr: 0x422C, symBinAddr: 0x100005774, symSize: 0xD8 }
  - { offsetInCU: 0x138DE, offset: 0x138DE, size: 0x8, addend: 0x0, symName: __ZNSt3__117__compressed_pairIPlNS_9allocatorIlEEE5firstB7v160006Ev, symObjAddr: 0x4304, symBinAddr: 0x10000584C, symSize: 0x24 }
  - { offsetInCU: 0x13904, offset: 0x13904, size: 0x8, addend: 0x0, symName: __ZNSt3__122__compressed_pair_elemIPlLi0ELb0EE5__getB7v160006Ev, symObjAddr: 0x4328, symBinAddr: 0x100005870, symSize: 0x14 }
  - { offsetInCU: 0x13945, offset: 0x13945, size: 0x8, addend: 0x0, symName: __ZNSt3__16vectorIlNS_9allocatorIlEEE21_ConstructTransactionC1B7v160006ERS3_m, symObjAddr: 0x433C, symBinAddr: 0x100005884, symSize: 0x3C }
  - { offsetInCU: 0x1398D, offset: 0x1398D, size: 0x8, addend: 0x0, symName: __ZNSt3__116allocator_traitsINS_9allocatorIlEEE9constructB7v160006IlJlEvEEvRS2_PT_DpOT0_, symObjAddr: 0x4378, symBinAddr: 0x1000058C0, symSize: 0x34 }
  - { offsetInCU: 0x139E4, offset: 0x139E4, size: 0x8, addend: 0x0, symName: __ZNSt3__16vectorIlNS_9allocatorIlEEE21_ConstructTransactionD1B7v160006Ev, symObjAddr: 0x43AC, symBinAddr: 0x1000058F4, symSize: 0x2C }
  - { offsetInCU: 0x13A0E, offset: 0x13A0E, size: 0x8, addend: 0x0, symName: __ZNSt3__16vectorIlNS_9allocatorIlEEE21_ConstructTransactionC2B7v160006ERS3_m, symObjAddr: 0x43D8, symBinAddr: 0x100005920, symSize: 0x44 }
  - { offsetInCU: 0x13A56, offset: 0x13A56, size: 0x8, addend: 0x0, symName: __ZNSt3__19allocatorIlE9constructB7v160006IlJlEEEvPT_DpOT0_, symObjAddr: 0x441C, symBinAddr: 0x100005964, symSize: 0x28 }
  - { offsetInCU: 0x13AAC, offset: 0x13AAC, size: 0x8, addend: 0x0, symName: __ZNSt3__16vectorIlNS_9allocatorIlEEE21_ConstructTransactionD2B7v160006Ev, symObjAddr: 0x4444, symBinAddr: 0x10000598C, symSize: 0x20 }
  - { offsetInCU: 0x13AD6, offset: 0x13AD6, size: 0x8, addend: 0x0, symName: __ZNKSt3__16vectorIlNS_9allocatorIlEEE11__recommendB7v160006Em, symObjAddr: 0x4464, symBinAddr: 0x1000059AC, symSize: 0xB4 }
  - { offsetInCU: 0x13B2B, offset: 0x13B2B, size: 0x8, addend: 0x0, symName: __ZNSt3__114__split_bufferIlRNS_9allocatorIlEEEC1EmmS3_, symObjAddr: 0x4518, symBinAddr: 0x100005A60, symSize: 0x44 }
  - { offsetInCU: 0x13B81, offset: 0x13B81, size: 0x8, addend: 0x0, symName: __ZNSt3__114__split_bufferIlRNS_9allocatorIlEEED1Ev, symObjAddr: 0x4674, symBinAddr: 0x100005BBC, symSize: 0x2C }
  - { offsetInCU: 0x13BAD, offset: 0x13BAD, size: 0x8, addend: 0x0, symName: __ZNKSt3__16vectorIlNS_9allocatorIlEEE8max_sizeEv, symObjAddr: 0x46A0, symBinAddr: 0x100005BE8, symSize: 0x60 }
  - { offsetInCU: 0x13BD5, offset: 0x13BD5, size: 0x8, addend: 0x0, symName: __ZNKSt3__16vectorIlNS_9allocatorIlEEE20__throw_length_errorB7v160006Ev, symObjAddr: 0x4700, symBinAddr: 0x100005C48, symSize: 0x1C }
  - { offsetInCU: 0x13C06, offset: 0x13C06, size: 0x8, addend: 0x0, symName: __ZNSt3__116allocator_traitsINS_9allocatorIlEEE8max_sizeB7v160006IS2_vEEmRKS2_, symObjAddr: 0x471C, symBinAddr: 0x100005C64, symSize: 0x24 }
  - { offsetInCU: 0x13C34, offset: 0x13C34, size: 0x8, addend: 0x0, symName: __ZNKSt3__16vectorIlNS_9allocatorIlEEE7__allocB7v160006Ev, symObjAddr: 0x4740, symBinAddr: 0x100005C88, symSize: 0x28 }
  - { offsetInCU: 0x13C5A, offset: 0x13C5A, size: 0x8, addend: 0x0, symName: __ZNKSt3__19allocatorIlE8max_sizeB7v160006Ev, symObjAddr: 0x4768, symBinAddr: 0x100005CB0, symSize: 0x14 }
  - { offsetInCU: 0x13C80, offset: 0x13C80, size: 0x8, addend: 0x0, symName: __ZNKSt3__117__compressed_pairIPlNS_9allocatorIlEEE6secondB7v160006Ev, symObjAddr: 0x477C, symBinAddr: 0x100005CC4, symSize: 0x24 }
  - { offsetInCU: 0x13CA6, offset: 0x13CA6, size: 0x8, addend: 0x0, symName: __ZNKSt3__122__compressed_pair_elemINS_9allocatorIlEELi1ELb1EE5__getB7v160006Ev, symObjAddr: 0x47A0, symBinAddr: 0x100005CE8, symSize: 0x14 }
  - { offsetInCU: 0x13CCC, offset: 0x13CCC, size: 0x8, addend: 0x0, symName: __ZNSt3__114__split_bufferIlRNS_9allocatorIlEEEC2EmmS3_, symObjAddr: 0x47B4, symBinAddr: 0x100005CFC, symSize: 0xD4 }
  - { offsetInCU: 0x13D3F, offset: 0x13D3F, size: 0x8, addend: 0x0, symName: __ZNSt3__117__compressed_pairIPlRNS_9allocatorIlEEEC1B7v160006IDnS4_EEOT_OT0_, symObjAddr: 0x4888, symBinAddr: 0x100005DD0, symSize: 0x3C }
  - { offsetInCU: 0x13D97, offset: 0x13D97, size: 0x8, addend: 0x0, symName: __ZNSt3__114__split_bufferIlRNS_9allocatorIlEEE7__allocB7v160006Ev, symObjAddr: 0x4904, symBinAddr: 0x100005E4C, symSize: 0x28 }
  - { offsetInCU: 0x13DBD, offset: 0x13DBD, size: 0x8, addend: 0x0, symName: __ZNSt3__114__split_bufferIlRNS_9allocatorIlEEE9__end_capB7v160006Ev, symObjAddr: 0x492C, symBinAddr: 0x100005E74, symSize: 0x28 }
  - { offsetInCU: 0x13DE3, offset: 0x13DE3, size: 0x8, addend: 0x0, symName: __ZNSt3__117__compressed_pairIPlRNS_9allocatorIlEEEC2B7v160006IDnS4_EEOT_OT0_, symObjAddr: 0x4954, symBinAddr: 0x100005E9C, symSize: 0x48 }
  - { offsetInCU: 0x13E3B, offset: 0x13E3B, size: 0x8, addend: 0x0, symName: __ZNSt3__122__compressed_pair_elemIRNS_9allocatorIlEELi1ELb0EEC2B7v160006IS3_vEEOT_, symObjAddr: 0x499C, symBinAddr: 0x100005EE4, symSize: 0x20 }
  - { offsetInCU: 0x13E7D, offset: 0x13E7D, size: 0x8, addend: 0x0, symName: __ZNSt3__19allocatorIlE8allocateB7v160006Em, symObjAddr: 0x49BC, symBinAddr: 0x100005F04, symSize: 0x58 }
  - { offsetInCU: 0x13EB1, offset: 0x13EB1, size: 0x8, addend: 0x0, symName: __ZNSt3__117__compressed_pairIPlRNS_9allocatorIlEEE6secondB7v160006Ev, symObjAddr: 0x4A14, symBinAddr: 0x100005F5C, symSize: 0x28 }
  - { offsetInCU: 0x13ED7, offset: 0x13ED7, size: 0x8, addend: 0x0, symName: __ZNSt3__122__compressed_pair_elemIRNS_9allocatorIlEELi1ELb0EE5__getB7v160006Ev, symObjAddr: 0x4A3C, symBinAddr: 0x100005F84, symSize: 0x18 }
  - { offsetInCU: 0x13EFD, offset: 0x13EFD, size: 0x8, addend: 0x0, symName: __ZNSt3__117__compressed_pairIPlRNS_9allocatorIlEEE5firstB7v160006Ev, symObjAddr: 0x4A54, symBinAddr: 0x100005F9C, symSize: 0x24 }
  - { offsetInCU: 0x13F23, offset: 0x13F23, size: 0x8, addend: 0x0, symName: __ZNSt3__116reverse_iteratorIPlEC1B7v160006ES1_, symObjAddr: 0x4AF0, symBinAddr: 0x100006038, symSize: 0x34 }
  - { offsetInCU: 0x13F5B, offset: 0x13F5B, size: 0x8, addend: 0x0, symName: __ZNKSt3__116reverse_iteratorIPlE4baseB7v160006Ev, symObjAddr: 0x4B24, symBinAddr: 0x10000606C, symSize: 0x18 }
  - { offsetInCU: 0x13F81, offset: 0x13F81, size: 0x8, addend: 0x0, symName: __ZNKSt3__16vectorIlNS_9allocatorIlEEE14__annotate_newB7v160006Em, symObjAddr: 0x4B78, symBinAddr: 0x1000060C0, symSize: 0xAC }
  - { offsetInCU: 0x13FDC, offset: 0x13FDC, size: 0x8, addend: 0x0, symName: __ZNKSt3__111__move_loopINS_17_ClassicAlgPolicyEEclB7v160006INS_16reverse_iteratorIPlEES6_S6_EENS_4pairIT_T1_EES8_T0_S9_, symObjAddr: 0x4F24, symBinAddr: 0x10000646C, symSize: 0xA0 }
  - { offsetInCU: 0x14047, offset: 0x14047, size: 0x8, addend: 0x0, symName: __ZNSt3__18_IterOpsINS_17_ClassicAlgPolicyEE11__iter_moveB7v160006IRNS_16reverse_iteratorIPlEEEENS_9enable_ifIXsr12is_referenceIDTdeclsr3stdE7declvalIRT_EEEEE5valueEDTclsr3stdE4movedeclsr3stdE7declvalISA_EEEEE4typeEOS9_, symObjAddr: 0x5158, symBinAddr: 0x1000066A0, symSize: 0x28 }
  - { offsetInCU: 0x14073, offset: 0x14073, size: 0x8, addend: 0x0, symName: __ZNKSt3__116reverse_iteratorIPlEdeB7v160006Ev, symObjAddr: 0x5180, symBinAddr: 0x1000066C8, symSize: 0x28 }
  - { offsetInCU: 0x140A7, offset: 0x140A7, size: 0x8, addend: 0x0, symName: __ZNSt3__116reverse_iteratorIPlEppB7v160006Ev, symObjAddr: 0x51A8, symBinAddr: 0x1000066F0, symSize: 0x20 }
  - { offsetInCU: 0x140CD, offset: 0x140CD, size: 0x8, addend: 0x0, symName: __ZNSt3__18_IterOpsINS_17_ClassicAlgPolicyEE25__validate_iter_referenceB7v160006IRNS_16reverse_iteratorIPlEEEEvv, symObjAddr: 0x51C8, symBinAddr: 0x100006710, symSize: 0x4 }
  - { offsetInCU: 0x140EB, offset: 0x140EB, size: 0x8, addend: 0x0, symName: __ZNSt3__118__unwrap_iter_implINS_16reverse_iteratorIPlEELb0EE8__unwrapB7v160006ES3_, symObjAddr: 0x51CC, symBinAddr: 0x100006714, symSize: 0x24 }
  - { offsetInCU: 0x14114, offset: 0x14114, size: 0x8, addend: 0x0, symName: __ZNSt3__14pairINS_16reverse_iteratorIPlEES3_EC1B7v160006IS3_S3_LPv0EEEOT_OT0_, symObjAddr: 0x51F0, symBinAddr: 0x100006738, symSize: 0x3C }
  - { offsetInCU: 0x14172, offset: 0x14172, size: 0x8, addend: 0x0, symName: __ZNSt3__14pairINS_16reverse_iteratorIPlEES3_EC2B7v160006IS3_S3_LPv0EEEOT_OT0_, symObjAddr: 0x522C, symBinAddr: 0x100006774, symSize: 0x34 }
  - { offsetInCU: 0x141D0, offset: 0x141D0, size: 0x8, addend: 0x0, symName: __ZNSt3__118__unwrap_iter_implINS_16reverse_iteratorIPlEELb0EE8__rewrapB7v160006ES3_S3_, symObjAddr: 0x5260, symBinAddr: 0x1000067A8, symSize: 0x2C }
  - { offsetInCU: 0x141FE, offset: 0x141FE, size: 0x8, addend: 0x0, symName: __ZNSt3__116reverse_iteratorIPlEC2B7v160006ES1_, symObjAddr: 0x528C, symBinAddr: 0x1000067D4, symSize: 0x28 }
  - { offsetInCU: 0x14236, offset: 0x14236, size: 0x8, addend: 0x0, symName: __ZNSt3__114__split_bufferIlRNS_9allocatorIlEEED2Ev, symObjAddr: 0x52B4, symBinAddr: 0x1000067FC, symSize: 0x8C }
  - { offsetInCU: 0x14262, offset: 0x14262, size: 0x8, addend: 0x0, symName: __ZNSt3__114__split_bufferIlRNS_9allocatorIlEEE5clearB7v160006Ev, symObjAddr: 0x5340, symBinAddr: 0x100006888, symSize: 0x28 }
  - { offsetInCU: 0x14288, offset: 0x14288, size: 0x8, addend: 0x0, symName: __ZNKSt3__114__split_bufferIlRNS_9allocatorIlEEE8capacityB7v160006Ev, symObjAddr: 0x5368, symBinAddr: 0x1000068B0, symSize: 0x40 }
  - { offsetInCU: 0x142AE, offset: 0x142AE, size: 0x8, addend: 0x0, symName: __ZNSt3__114__split_bufferIlRNS_9allocatorIlEEE17__destruct_at_endB7v160006EPl, symObjAddr: 0x53A8, symBinAddr: 0x1000068F0, symSize: 0x2C }
  - { offsetInCU: 0x142E2, offset: 0x142E2, size: 0x8, addend: 0x0, symName: __ZNSt3__114__split_bufferIlRNS_9allocatorIlEEE17__destruct_at_endB7v160006EPlNS_17integral_constantIbLb0EEE, symObjAddr: 0x53D4, symBinAddr: 0x10000691C, symSize: 0x80 }
  - { offsetInCU: 0x14323, offset: 0x14323, size: 0x8, addend: 0x0, symName: __ZNKSt3__114__split_bufferIlRNS_9allocatorIlEEE9__end_capB7v160006Ev, symObjAddr: 0x5454, symBinAddr: 0x10000699C, symSize: 0x28 }
  - { offsetInCU: 0x14349, offset: 0x14349, size: 0x8, addend: 0x0, symName: __ZNKSt3__117__compressed_pairIPlRNS_9allocatorIlEEE5firstB7v160006Ev, symObjAddr: 0x547C, symBinAddr: 0x1000069C4, symSize: 0x24 }
  - { offsetInCU: 0x1436F, offset: 0x1436F, size: 0x8, addend: 0x0, symName: __ZNKSt3__16vectorIlNS_9allocatorIlEEE5emptyB7v160006Ev, symObjAddr: 0x54A0, symBinAddr: 0x1000069E8, symSize: 0x28 }
  - { offsetInCU: 0x14395, offset: 0x14395, size: 0x8, addend: 0x0, symName: __ZN7Dungeon15rooms_availableEv, symObjAddr: 0x54C8, symBinAddr: 0x100006A10, symSize: 0x114 }
  - { offsetInCU: 0x143D7, offset: 0x143D7, size: 0x8, addend: 0x0, symName: __ZNSt3__16vectorIlNS_9allocatorIlEEE8pop_backEv, symObjAddr: 0x55DC, symBinAddr: 0x100006B24, symSize: 0x2C }
  - { offsetInCU: 0x143FF, offset: 0x143FF, size: 0x8, addend: 0x0, symName: __ZN7Dungeon7connectENSt3__110shared_ptrI4TileEES3_, symObjAddr: 0x5608, symBinAddr: 0x100006B50, symSize: 0x1E4 }
  - { offsetInCU: 0x14499, offset: 0x14499, size: 0x8, addend: 0x0, symName: __ZNKSt3__16chrono10time_pointINS0_12system_clockENS0_8durationIxNS_5ratioILl1ELl1000000EEEEEE16time_since_epochB7v160006Ev, symObjAddr: 0x57EC, symBinAddr: 0x100006D34, symSize: 0x20 }
  - { offsetInCU: 0x144BF, offset: 0x144BF, size: 0x8, addend: 0x0, symName: __ZNKSt3__16chrono8durationIxNS_5ratioILl1ELl1000000EEEE5countB7v160006Ev, symObjAddr: 0x580C, symBinAddr: 0x100006D54, symSize: 0x18 }
  - { offsetInCU: 0x144E5, offset: 0x144E5, size: 0x8, addend: 0x0, symName: __ZN7Dungeon8find_keyEv, symObjAddr: 0x5824, symBinAddr: 0x100006D6C, symSize: 0xC8 }
  - { offsetInCU: 0x14535, offset: 0x14535, size: 0x8, addend: 0x0, symName: __ZN7Dungeon16remove_full_tileEi, symObjAddr: 0x58EC, symBinAddr: 0x100006E34, symSize: 0x11C }
  - { offsetInCU: 0x14593, offset: 0x14593, size: 0x8, addend: 0x0, symName: __ZNSt3__16vectorIlNS_9allocatorIlEEE5beginB7v160006Ev, symObjAddr: 0x5A50, symBinAddr: 0x100006F98, symSize: 0x30 }
  - { offsetInCU: 0x145BB, offset: 0x145BB, size: 0x8, addend: 0x0, symName: __ZNSt3__16vectorIlNS_9allocatorIlEEE3endB7v160006Ev, symObjAddr: 0x5A80, symBinAddr: 0x100006FC8, symSize: 0x30 }
  - { offsetInCU: 0x145E3, offset: 0x145E3, size: 0x8, addend: 0x0, symName: __ZNSt3__126linear_congruential_engineIjLj48271ELj0ELj2147483647EEC1B7v160006Ej, symObjAddr: 0x5AB0, symBinAddr: 0x100006FF8, symSize: 0x34 }
  - { offsetInCU: 0x1461B, offset: 0x1461B, size: 0x8, addend: 0x0, symName: __ZNSt3__16vectorIlNS_9allocatorIlEEE2atEm, symObjAddr: 0x5AE4, symBinAddr: 0x10000702C, symSize: 0x60 }
  - { offsetInCU: 0x14652, offset: 0x14652, size: 0x8, addend: 0x0, symName: __ZN4Tile6retadjEv, symObjAddr: 0x5B44, symBinAddr: 0x10000708C, symSize: 0x18 }
  - { offsetInCU: 0x14678, offset: 0x14678, size: 0x8, addend: 0x0, symName: __ZN4Tile17destoryconnectionEv, symObjAddr: 0x5B5C, symBinAddr: 0x1000070A4, symSize: 0x20 }
  - { offsetInCU: 0x1469E, offset: 0x1469E, size: 0x8, addend: 0x0, symName: __ZNSt3__16vectorIlNS_9allocatorIlEEE4backB7v160006Ev, symObjAddr: 0x5B7C, symBinAddr: 0x1000070C4, symSize: 0x1C }
  - { offsetInCU: 0x146C4, offset: 0x146C4, size: 0x8, addend: 0x0, symName: __ZNSt3__18_IterOpsINS_17_ClassicAlgPolicyEE4nextB7v160006INS_11__wrap_iterIPlEEEET_S7_S7_, symObjAddr: 0x5CD4, symBinAddr: 0x10000721C, symSize: 0x20 }
  - { offsetInCU: 0x146FB, offset: 0x146FB, size: 0x8, addend: 0x0, symName: __ZNSt3__124uniform_int_distributionIlEC1Ev, symObjAddr: 0x5D3C, symBinAddr: 0x100007284, symSize: 0x3C }
  - { offsetInCU: 0x14725, offset: 0x14725, size: 0x8, addend: 0x0, symName: __ZNSt3__111__wrap_iterIPlEmmB7v160006Ev, symObjAddr: 0x5D78, symBinAddr: 0x1000072C0, symSize: 0x20 }
  - { offsetInCU: 0x1474B, offset: 0x1474B, size: 0x8, addend: 0x0, symName: __ZNSt3__124uniform_int_distributionIlE10param_typeC1Ell, symObjAddr: 0x5F54, symBinAddr: 0x10000749C, symSize: 0x3C }
  - { offsetInCU: 0x14797, offset: 0x14797, size: 0x8, addend: 0x0, symName: __ZNSt3__18_IterOpsINS_17_ClassicAlgPolicyEE9iter_swapB7v160006IRNS_11__wrap_iterIPlEES6_EEvOT_OT0_, symObjAddr: 0x5F90, symBinAddr: 0x1000074D8, symSize: 0x44 }
  - { offsetInCU: 0x147DA, offset: 0x147DA, size: 0x8, addend: 0x0, symName: __ZNKSt3__111__wrap_iterIPlEplB7v160006El, symObjAddr: 0x5FD4, symBinAddr: 0x10000751C, symSize: 0x3C }
  - { offsetInCU: 0x1481C, offset: 0x1481C, size: 0x8, addend: 0x0, symName: __ZNSt3__111__wrap_iterIPlEppB7v160006Ev, symObjAddr: 0x6010, symBinAddr: 0x100007558, symSize: 0x20 }
  - { offsetInCU: 0x14842, offset: 0x14842, size: 0x8, addend: 0x0, symName: __ZNKSt3__111__wrap_iterIPlE4baseB7v160006Ev, symObjAddr: 0x6030, symBinAddr: 0x100007578, symSize: 0x18 }
  - { offsetInCU: 0x14868, offset: 0x14868, size: 0x8, addend: 0x0, symName: __ZNSt3__124uniform_int_distributionIlEC1Ell, symObjAddr: 0x6048, symBinAddr: 0x100007590, symSize: 0x3C }
  - { offsetInCU: 0x148AE, offset: 0x148AE, size: 0x8, addend: 0x0, symName: __ZNSt3__124uniform_int_distributionIlEC2Ell, symObjAddr: 0x6084, symBinAddr: 0x1000075CC, symSize: 0x3C }
  - { offsetInCU: 0x148F4, offset: 0x148F4, size: 0x8, addend: 0x0, symName: __ZNKSt3__124uniform_int_distributionIlE10param_type1bEv, symObjAddr: 0x60C0, symBinAddr: 0x100007608, symSize: 0x18 }
  - { offsetInCU: 0x1491A, offset: 0x1491A, size: 0x8, addend: 0x0, symName: __ZNKSt3__124uniform_int_distributionIlE10param_type1aEv, symObjAddr: 0x60D8, symBinAddr: 0x100007620, symSize: 0x18 }
  - { offsetInCU: 0x14940, offset: 0x14940, size: 0x8, addend: 0x0, symName: __ZNSt3__125__independent_bits_engineINS_26linear_congruential_engineIjLj48271ELj0ELj2147483647EEEmEC1ERS2_m, symObjAddr: 0x60F0, symBinAddr: 0x100007638, symSize: 0x3C }
  - { offsetInCU: 0x14987, offset: 0x14987, size: 0x8, addend: 0x0, symName: __ZNSt3__125__independent_bits_engineINS_26linear_congruential_engineIjLj48271ELj0ELj2147483647EEEmEclEv, symObjAddr: 0x612C, symBinAddr: 0x100007674, symSize: 0x24 }
  - { offsetInCU: 0x149AD, offset: 0x149AD, size: 0x8, addend: 0x0, symName: __ZNSt3__114numeric_limitsImE3maxB7v160006Ev, symObjAddr: 0x61A4, symBinAddr: 0x1000076EC, symSize: 0x14 }
  - { offsetInCU: 0x149C1, offset: 0x149C1, size: 0x8, addend: 0x0, symName: __ZNSt3__125__independent_bits_engineINS_26linear_congruential_engineIjLj48271ELj0ELj2147483647EEEmEC2ERS2_m, symObjAddr: 0x61B8, symBinAddr: 0x100007700, symSize: 0x264 }
  - { offsetInCU: 0x14A08, offset: 0x14A08, size: 0x8, addend: 0x0, symName: __ZNSt3__125__independent_bits_engineINS_26linear_congruential_engineIjLj48271ELj0ELj2147483647EEEmE6__evalENS_17integral_constantIbLb1EEE, symObjAddr: 0x641C, symBinAddr: 0x100007964, symSize: 0x1F0 }
  - { offsetInCU: 0x14AC6, offset: 0x14AC6, size: 0x8, addend: 0x0, symName: __ZNSt3__126linear_congruential_engineIjLj48271ELj0ELj2147483647EEclB7v160006Ev, symObjAddr: 0x660C, symBinAddr: 0x100007B54, symSize: 0x34 }
  - { offsetInCU: 0x14AEC, offset: 0x14AEC, size: 0x8, addend: 0x0, symName: __ZNSt3__126linear_congruential_engineIjLj48271ELj0ELj2147483647EE3minB7v160006Ev, symObjAddr: 0x6640, symBinAddr: 0x100007B88, symSize: 0x8 }
  - { offsetInCU: 0x14B0B, offset: 0x14B0B, size: 0x8, addend: 0x0, symName: __ZNSt3__18__lce_taILy48271ELy0ELy2147483647ELy4294967295ELb1EE4nextB7v160006Ej, symObjAddr: 0x6648, symBinAddr: 0x100007B90, symSize: 0x88 }
  - { offsetInCU: 0x14B82, offset: 0x14B82, size: 0x8, addend: 0x0, symName: __ZNSt3__123__libcpp_numeric_limitsImLb1EE3maxB7v160006Ev, symObjAddr: 0x66EC, symBinAddr: 0x100007C34, symSize: 0x8 }
  - { offsetInCU: 0x14B96, offset: 0x14B96, size: 0x8, addend: 0x0, symName: __ZNSt3__124uniform_int_distributionIlE10param_typeC2Ell, symObjAddr: 0x66F4, symBinAddr: 0x100007C3C, symSize: 0x2C }
  - { offsetInCU: 0x14BDC, offset: 0x14BDC, size: 0x8, addend: 0x0, symName: __ZNKSt3__111__wrap_iterIPlEdeB7v160006Ev, symObjAddr: 0x67AC, symBinAddr: 0x100007CF4, symSize: 0x18 }
  - { offsetInCU: 0x14C02, offset: 0x14C02, size: 0x8, addend: 0x0, symName: __ZNSt3__111__wrap_iterIPlEpLB7v160006El, symObjAddr: 0x67C4, symBinAddr: 0x100007D0C, symSize: 0x28 }
  - { offsetInCU: 0x14C36, offset: 0x14C36, size: 0x8, addend: 0x0, symName: __ZNSt3__16vectorIlNS_9allocatorIlEEE11__make_iterB7v160006EPl, symObjAddr: 0x67EC, symBinAddr: 0x100007D34, symSize: 0x34 }
  - { offsetInCU: 0x14C6B, offset: 0x14C6B, size: 0x8, addend: 0x0, symName: __ZNSt3__111__wrap_iterIPlEC1B7v160006EPKvS1_, symObjAddr: 0x6820, symBinAddr: 0x100007D68, symSize: 0x3C }
  - { offsetInCU: 0x14CB1, offset: 0x14CB1, size: 0x8, addend: 0x0, symName: __ZNSt3__111__wrap_iterIPlEC2B7v160006EPKvS1_, symObjAddr: 0x685C, symBinAddr: 0x100007DA4, symSize: 0x24 }
  - { offsetInCU: 0x14CF7, offset: 0x14CF7, size: 0x8, addend: 0x0, symName: __ZNSt3__126linear_congruential_engineIjLj48271ELj0ELj2147483647EEC2B7v160006Ej, symObjAddr: 0x6880, symBinAddr: 0x100007DC8, symSize: 0x34 }
  - { offsetInCU: 0x14D2F, offset: 0x14D2F, size: 0x8, addend: 0x0, symName: __ZNSt3__126linear_congruential_engineIjLj48271ELj0ELj2147483647EE4seedB7v160006Ej, symObjAddr: 0x68B4, symBinAddr: 0x100007DFC, symSize: 0x2C }
  - { offsetInCU: 0x14D63, offset: 0x14D63, size: 0x8, addend: 0x0, symName: __ZNSt3__126linear_congruential_engineIjLj48271ELj0ELj2147483647EE4seedB7v160006ENS_17integral_constantIbLb0EEENS2_IbLb1EEEj, symObjAddr: 0x68E0, symBinAddr: 0x100007E28, symSize: 0x74 }
  - { offsetInCU: 0x14DAE, offset: 0x14DAE, size: 0x8, addend: 0x0, symName: __ZNKSt3__16vectorIlNS_9allocatorIlEEE20__throw_out_of_rangeB7v160006Ev, symObjAddr: 0x6954, symBinAddr: 0x100007E9C, symSize: 0x1C }
  - { offsetInCU: 0x14DD4, offset: 0x14DD4, size: 0x8, addend: 0x0, symName: __ZNSt3__16vectorIlNS_9allocatorIlEEE17__destruct_at_endB7v160006EPl, symObjAddr: 0x6970, symBinAddr: 0x100007EB8, symSize: 0x60 }
  - { offsetInCU: 0x14E18, offset: 0x14E18, size: 0x8, addend: 0x0, symName: __ZNSt3__16vectorIlNS_9allocatorIlEEE27__invalidate_iterators_pastB7v160006EPl, symObjAddr: 0x69D0, symBinAddr: 0x100007F18, symSize: 0x14 }
  - { offsetInCU: 0x14E4F, offset: 0x14E4F, size: 0x8, addend: 0x0, symName: __ZNKSt3__16vectorIlNS_9allocatorIlEEE17__annotate_shrinkB7v160006Em, symObjAddr: 0x69E4, symBinAddr: 0x100007F2C, symSize: 0xB4 }
  - { offsetInCU: 0x14E84, offset: 0x14E84, size: 0x8, addend: 0x0, symName: __ZN4Tile5retidEv, symObjAddr: 0x6A98, symBinAddr: 0x100007FE0, symSize: 0x18 }
  - { offsetInCU: 0x14EAA, offset: 0x14EAA, size: 0x8, addend: 0x0, symName: __ZN4Tile10searchadjsES_, symObjAddr: 0x6AB0, symBinAddr: 0x100007FF8, symSize: 0xCC }
  - { offsetInCU: 0x14F30, offset: 0x14F30, size: 0x8, addend: 0x0, symName: __ZNKSt3__110shared_ptrI4TileEdeB7v160006Ev, symObjAddr: 0x6B7C, symBinAddr: 0x1000080C4, symSize: 0x18 }
  - { offsetInCU: 0x14F56, offset: 0x14F56, size: 0x8, addend: 0x0, symName: __ZN4TileC1ERKS_, symObjAddr: 0x6B94, symBinAddr: 0x1000080DC, symSize: 0x34 }
  - { offsetInCU: 0x14F8B, offset: 0x14F8B, size: 0x8, addend: 0x0, symName: __ZN4Tile11append_roomENSt3__110shared_ptrIS_EE, symObjAddr: 0x6BC8, symBinAddr: 0x100008110, symSize: 0x40 }
  - { offsetInCU: 0x14FC0, offset: 0x14FC0, size: 0x8, addend: 0x0, symName: __ZNSt3__16vectorINS_10shared_ptrI4TileEENS_9allocatorIS3_EEE5beginB7v160006Ev, symObjAddr: 0x6C08, symBinAddr: 0x100008150, symSize: 0x30 }
  - { offsetInCU: 0x14FE8, offset: 0x14FE8, size: 0x8, addend: 0x0, symName: __ZNSt3__16vectorINS_10shared_ptrI4TileEENS_9allocatorIS3_EEE3endB7v160006Ev, symObjAddr: 0x6C38, symBinAddr: 0x100008180, symSize: 0x30 }
  - { offsetInCU: 0x15010, offset: 0x15010, size: 0x8, addend: 0x0, symName: __ZNKSt3__111__wrap_iterIPNS_10shared_ptrI4TileEEEdeB7v160006Ev, symObjAddr: 0x6C9C, symBinAddr: 0x1000081E4, symSize: 0x18 }
  - { offsetInCU: 0x15036, offset: 0x15036, size: 0x8, addend: 0x0, symName: __ZNSt3__111__wrap_iterIPNS_10shared_ptrI4TileEEEppB7v160006Ev, symObjAddr: 0x6CB4, symBinAddr: 0x1000081FC, symSize: 0x20 }
  - { offsetInCU: 0x1505C, offset: 0x1505C, size: 0x8, addend: 0x0, symName: __ZNSt3__16vectorINS_10shared_ptrI4TileEENS_9allocatorIS3_EEE11__make_iterB7v160006EPS3_, symObjAddr: 0x6CD4, symBinAddr: 0x10000821C, symSize: 0x34 }
  - { offsetInCU: 0x15091, offset: 0x15091, size: 0x8, addend: 0x0, symName: __ZNSt3__111__wrap_iterIPNS_10shared_ptrI4TileEEEC1B7v160006EPKvS4_, symObjAddr: 0x6D08, symBinAddr: 0x100008250, symSize: 0x3C }
  - { offsetInCU: 0x150D7, offset: 0x150D7, size: 0x8, addend: 0x0, symName: __ZNSt3__111__wrap_iterIPNS_10shared_ptrI4TileEEEC2B7v160006EPKvS4_, symObjAddr: 0x6D44, symBinAddr: 0x10000828C, symSize: 0x24 }
  - { offsetInCU: 0x1511D, offset: 0x1511D, size: 0x8, addend: 0x0, symName: __ZNKSt3__111__wrap_iterIPNS_10shared_ptrI4TileEEE4baseB7v160006Ev, symObjAddr: 0x6DB0, symBinAddr: 0x1000082F8, symSize: 0x18 }
  - { offsetInCU: 0x15143, offset: 0x15143, size: 0x8, addend: 0x0, symName: __ZN4TileC2ERKS_, symObjAddr: 0x6DC8, symBinAddr: 0x100008310, symSize: 0x40 }
  - { offsetInCU: 0x15178, offset: 0x15178, size: 0x8, addend: 0x0, symName: __ZNSt3__16vectorINS_10shared_ptrI4TileEENS_9allocatorIS3_EEEC1ERKS6_, symObjAddr: 0x6E08, symBinAddr: 0x100008350, symSize: 0x34 }
  - { offsetInCU: 0x151B3, offset: 0x151B3, size: 0x8, addend: 0x0, symName: __ZNSt3__16vectorINS_10shared_ptrI4TileEENS_9allocatorIS3_EEEC2ERKS6_, symObjAddr: 0x6E3C, symBinAddr: 0x100008384, symSize: 0x110 }
  - { offsetInCU: 0x15212, offset: 0x15212, size: 0x8, addend: 0x0, symName: __ZNSt3__116allocator_traitsINS_9allocatorINS_10shared_ptrI4TileEEEEE37select_on_container_copy_constructionB7v160006IS5_vvEES5_RKS5_, symObjAddr: 0x6F4C, symBinAddr: 0x100008494, symSize: 0x10 }
  - { offsetInCU: 0x15247, offset: 0x15247, size: 0x8, addend: 0x0, symName: __ZNSt3__117__compressed_pairIPNS_10shared_ptrI4TileEENS_9allocatorIS3_EEEC1B7v160006IDnS6_EEOT_OT0_, symObjAddr: 0x6F5C, symBinAddr: 0x1000084A4, symSize: 0x3C }
  - { offsetInCU: 0x1529F, offset: 0x1529F, size: 0x8, addend: 0x0, symName: __ZNSt3__16vectorINS_10shared_ptrI4TileEENS_9allocatorIS3_EEE11__vallocateB7v160006Em, symObjAddr: 0x6FD8, symBinAddr: 0x100008520, symSize: 0xAC }
  - { offsetInCU: 0x152E3, offset: 0x152E3, size: 0x8, addend: 0x0, symName: __ZNSt3__16vectorINS_10shared_ptrI4TileEENS_9allocatorIS3_EEE18__construct_at_endIPS3_Li0EEEvT_S9_m, symObjAddr: 0x7084, symBinAddr: 0x1000085CC, symSize: 0x8C }
  - { offsetInCU: 0x15356, offset: 0x15356, size: 0x8, addend: 0x0, symName: __ZNSt3__128__exception_guard_exceptionsINS_6vectorINS_10shared_ptrI4TileEENS_9allocatorIS4_EEE16__destroy_vectorEE10__completeB7v160006Ev, symObjAddr: 0x7110, symBinAddr: 0x100008658, symSize: 0x1C }
  - { offsetInCU: 0x1537C, offset: 0x1537C, size: 0x8, addend: 0x0, symName: __ZNSt3__128__exception_guard_exceptionsINS_6vectorINS_10shared_ptrI4TileEENS_9allocatorIS4_EEE16__destroy_vectorEED1B7v160006Ev, symObjAddr: 0x712C, symBinAddr: 0x100008674, symSize: 0x2C }
  - { offsetInCU: 0x153A6, offset: 0x153A6, size: 0x8, addend: 0x0, symName: __ZNSt3__117__compressed_pairIPNS_10shared_ptrI4TileEENS_9allocatorIS3_EEEC2B7v160006IDnS6_EEOT_OT0_, symObjAddr: 0x7158, symBinAddr: 0x1000086A0, symSize: 0x44 }
  - { offsetInCU: 0x153FE, offset: 0x153FE, size: 0x8, addend: 0x0, symName: __ZNSt3__122__compressed_pair_elemINS_9allocatorINS_10shared_ptrI4TileEEEELi1ELb1EEC2B7v160006IS5_vEEOT_, symObjAddr: 0x719C, symBinAddr: 0x1000086E4, symSize: 0x18 }
  - { offsetInCU: 0x15440, offset: 0x15440, size: 0x8, addend: 0x0, symName: __ZNSt3__128__exception_guard_exceptionsINS_6vectorINS_10shared_ptrI4TileEENS_9allocatorIS4_EEE16__destroy_vectorEEC1B7v160006ES8_, symObjAddr: 0x71B4, symBinAddr: 0x1000086FC, symSize: 0x34 }
  - { offsetInCU: 0x15478, offset: 0x15478, size: 0x8, addend: 0x0, symName: __ZNSt3__128__exception_guard_exceptionsINS_6vectorINS_10shared_ptrI4TileEENS_9allocatorIS4_EEE16__destroy_vectorEEC2B7v160006ES8_, symObjAddr: 0x71E8, symBinAddr: 0x100008730, symSize: 0x24 }
  - { offsetInCU: 0x154B0, offset: 0x154B0, size: 0x8, addend: 0x0, symName: __ZNSt3__129_AllocatorDestroyRangeReverseINS_9allocatorINS_10shared_ptrI4TileEEEEPS4_EC1B7v160006ERS5_RS6_S9_, symObjAddr: 0x734C, symBinAddr: 0x100008894, symSize: 0x44 }
  - { offsetInCU: 0x15507, offset: 0x15507, size: 0x8, addend: 0x0, symName: __ZNSt3__116allocator_traitsINS_9allocatorINS_10shared_ptrI4TileEEEEE9constructB7v160006IS4_JRS4_EvEEvRS5_PT_DpOT0_, symObjAddr: 0x7390, symBinAddr: 0x1000088D8, symSize: 0x34 }
  - { offsetInCU: 0x1555E, offset: 0x1555E, size: 0x8, addend: 0x0, symName: __ZNSt3__128__exception_guard_exceptionsINS_29_AllocatorDestroyRangeReverseINS_9allocatorINS_10shared_ptrI4TileEEEEPS5_EEE10__completeB7v160006Ev, symObjAddr: 0x73C4, symBinAddr: 0x10000890C, symSize: 0x1C }
  - { offsetInCU: 0x15584, offset: 0x15584, size: 0x8, addend: 0x0, symName: __ZNSt3__128__exception_guard_exceptionsINS_29_AllocatorDestroyRangeReverseINS_9allocatorINS_10shared_ptrI4TileEEEEPS5_EEED1B7v160006Ev, symObjAddr: 0x73E0, symBinAddr: 0x100008928, symSize: 0x2C }
  - { offsetInCU: 0x155AE, offset: 0x155AE, size: 0x8, addend: 0x0, symName: __ZNSt3__128__exception_guard_exceptionsINS_29_AllocatorDestroyRangeReverseINS_9allocatorINS_10shared_ptrI4TileEEEEPS5_EEEC1B7v160006ES8_, symObjAddr: 0x740C, symBinAddr: 0x100008954, symSize: 0x34 }
  - { offsetInCU: 0x155E7, offset: 0x155E7, size: 0x8, addend: 0x0, symName: __ZNSt3__128__exception_guard_exceptionsINS_29_AllocatorDestroyRangeReverseINS_9allocatorINS_10shared_ptrI4TileEEEEPS5_EEEC2B7v160006ES8_, symObjAddr: 0x7440, symBinAddr: 0x100008988, symSize: 0x30 }
  - { offsetInCU: 0x15620, offset: 0x15620, size: 0x8, addend: 0x0, symName: __ZNSt3__129_AllocatorDestroyRangeReverseINS_9allocatorINS_10shared_ptrI4TileEEEEPS4_EC2B7v160006ERS5_RS6_S9_, symObjAddr: 0x7470, symBinAddr: 0x1000089B8, symSize: 0x38 }
  - { offsetInCU: 0x15677, offset: 0x15677, size: 0x8, addend: 0x0, symName: __ZNSt3__19allocatorINS_10shared_ptrI4TileEEE9constructB7v160006IS3_JRS3_EEEvPT_DpOT0_, symObjAddr: 0x74A8, symBinAddr: 0x1000089F0, symSize: 0x30 }
  - { offsetInCU: 0x156CD, offset: 0x156CD, size: 0x8, addend: 0x0, symName: __ZNSt3__128__exception_guard_exceptionsINS_29_AllocatorDestroyRangeReverseINS_9allocatorINS_10shared_ptrI4TileEEEEPS5_EEED2B7v160006Ev, symObjAddr: 0x74D8, symBinAddr: 0x100008A20, symSize: 0x50 }
  - { offsetInCU: 0x156F7, offset: 0x156F7, size: 0x8, addend: 0x0, symName: __ZNKSt3__129_AllocatorDestroyRangeReverseINS_9allocatorINS_10shared_ptrI4TileEEEEPS4_EclB7v160006Ev, symObjAddr: 0x7528, symBinAddr: 0x100008A70, symSize: 0x68 }
  - { offsetInCU: 0x1571D, offset: 0x1571D, size: 0x8, addend: 0x0, symName: __ZNSt3__128__exception_guard_exceptionsINS_6vectorINS_10shared_ptrI4TileEENS_9allocatorIS4_EEE16__destroy_vectorEED2B7v160006Ev, symObjAddr: 0x7600, symBinAddr: 0x100008B48, symSize: 0x50 }
  - { offsetInCU: 0x15747, offset: 0x15747, size: 0x8, addend: 0x0, symName: __ZNSt3__16vectorINS_10shared_ptrI4TileEENS_9allocatorIS3_EEE9push_backB7v160006ERKS3_, symObjAddr: 0x7650, symBinAddr: 0x100008B98, symSize: 0x6C }
  - { offsetInCU: 0x1577E, offset: 0x1577E, size: 0x8, addend: 0x0, symName: __ZNSt3__16vectorINS_10shared_ptrI4TileEENS_9allocatorIS3_EEE22__construct_one_at_endB7v160006IJRKS3_EEEvDpOT_, symObjAddr: 0x76BC, symBinAddr: 0x100008C04, symSize: 0x90 }
  - { offsetInCU: 0x157CD, offset: 0x157CD, size: 0x8, addend: 0x0, symName: __ZNSt3__16vectorINS_10shared_ptrI4TileEENS_9allocatorIS3_EEE21__push_back_slow_pathIRKS3_EEvOT_, symObjAddr: 0x774C, symBinAddr: 0x100008C94, symSize: 0xD8 }
  - { offsetInCU: 0x1582B, offset: 0x1582B, size: 0x8, addend: 0x0, symName: __ZNSt3__116allocator_traitsINS_9allocatorINS_10shared_ptrI4TileEEEEE9constructB7v160006IS4_JRKS4_EvEEvRS5_PT_DpOT0_, symObjAddr: 0x7824, symBinAddr: 0x100008D6C, symSize: 0x34 }
  - { offsetInCU: 0x15882, offset: 0x15882, size: 0x8, addend: 0x0, symName: __ZNSt3__19allocatorINS_10shared_ptrI4TileEEE9constructB7v160006IS3_JRKS3_EEEvPT_DpOT0_, symObjAddr: 0x7858, symBinAddr: 0x100008DA0, symSize: 0x30 }
  - { offsetInCU: 0x158D8, offset: 0x158D8, size: 0x8, addend: 0x0, symName: __ZN9CharacterC2ENSt3__112basic_stringIcNS0_11char_traitsIcEENS0_9allocatorIcEEEENS0_10shared_ptrI4TileEE, symObjAddr: 0x7888, symBinAddr: 0x100008DD0, symSize: 0x58 }
  - { offsetInCU: 0x15920, offset: 0x15920, size: 0x8, addend: 0x0, symName: __ZNSt3__16vectorINS_10shared_ptrI4ItemEENS_9allocatorIS3_EEEC1B7v160006Ev, symObjAddr: 0x78E0, symBinAddr: 0x100008E28, symSize: 0x2C }
  - { offsetInCU: 0x1594A, offset: 0x1594A, size: 0x8, addend: 0x0, symName: __ZNSt3__16vectorINS_10shared_ptrI4ItemEENS_9allocatorIS3_EEEC2B7v160006Ev, symObjAddr: 0x790C, symBinAddr: 0x100008E54, symSize: 0x58 }
  - { offsetInCU: 0x15974, offset: 0x15974, size: 0x8, addend: 0x0, symName: __ZNSt3__117__compressed_pairIPNS_10shared_ptrI4ItemEENS_9allocatorIS3_EEEC1B7v160006IDnNS_18__default_init_tagEEEOT_OT0_, symObjAddr: 0x7964, symBinAddr: 0x100008EAC, symSize: 0x3C }
  - { offsetInCU: 0x159CC, offset: 0x159CC, size: 0x8, addend: 0x0, symName: __ZNSt3__117__compressed_pairIPNS_10shared_ptrI4ItemEENS_9allocatorIS3_EEEC2B7v160006IDnNS_18__default_init_tagEEEOT_OT0_, symObjAddr: 0x79B0, symBinAddr: 0x100008EF8, symSize: 0x40 }
  - { offsetInCU: 0x15A24, offset: 0x15A24, size: 0x8, addend: 0x0, symName: __ZNSt3__122__compressed_pair_elemIPNS_10shared_ptrI4ItemEELi0ELb0EEC2B7v160006IDnvEEOT_, symObjAddr: 0x79F0, symBinAddr: 0x100008F38, symSize: 0x1C }
  - { offsetInCU: 0x15A66, offset: 0x15A66, size: 0x8, addend: 0x0, symName: __ZNSt3__122__compressed_pair_elemINS_9allocatorINS_10shared_ptrI4ItemEEEELi1ELb1EEC2B7v160006ENS_18__default_init_tagE, symObjAddr: 0x7A0C, symBinAddr: 0x100008F54, symSize: 0x2C }
  - { offsetInCU: 0x15A9B, offset: 0x15A9B, size: 0x8, addend: 0x0, symName: __ZNSt3__19allocatorINS_10shared_ptrI4ItemEEEC2B7v160006Ev, symObjAddr: 0x7A38, symBinAddr: 0x100008F80, symSize: 0x2C }
  - { offsetInCU: 0x15AC5, offset: 0x15AC5, size: 0x8, addend: 0x0, symName: __ZNSt3__116__non_trivial_ifILb1ENS_9allocatorINS_10shared_ptrI4ItemEEEEEC2B7v160006Ev, symObjAddr: 0x7A64, symBinAddr: 0x100008FAC, symSize: 0x14 }
  - { offsetInCU: 0x15AEF, offset: 0x15AEF, size: 0x8, addend: 0x0, symName: __ZN9Character11move_choiceEv, symObjAddr: 0x7A78, symBinAddr: 0x100008FC0, symSize: 0x270 }
  - { offsetInCU: 0x15B45, offset: 0x15B45, size: 0x8, addend: 0x0, symName: __ZN4Tile18get_adjacent_roomsEv, symObjAddr: 0x7CE8, symBinAddr: 0x100009230, symSize: 0x38 }
  - { offsetInCU: 0x15B6B, offset: 0x15B6B, size: 0x8, addend: 0x0, symName: __ZN9Character4moveEi, symObjAddr: 0x7D20, symBinAddr: 0x100009268, symSize: 0x228 }
  - { offsetInCU: 0x15B9F, offset: 0x15B9F, size: 0x8, addend: 0x0, symName: __ZN9CharacterD2Ev, symObjAddr: 0x7F48, symBinAddr: 0x100009490, symSize: 0x44 }
  - { offsetInCU: 0x15BCB, offset: 0x15BCB, size: 0x8, addend: 0x0, symName: __ZNSt3__16vectorINS_10shared_ptrI4ItemEENS_9allocatorIS3_EEED1B7v160006Ev, symObjAddr: 0x7F8C, symBinAddr: 0x1000094D4, symSize: 0x2C }
  - { offsetInCU: 0x15BF5, offset: 0x15BF5, size: 0x8, addend: 0x0, symName: __ZNSt3__16vectorINS_10shared_ptrI4ItemEENS_9allocatorIS3_EEED2B7v160006Ev, symObjAddr: 0x7FB8, symBinAddr: 0x100009500, symSize: 0x44 }
  - { offsetInCU: 0x15C1F, offset: 0x15C1F, size: 0x8, addend: 0x0, symName: __ZNSt3__16vectorINS_10shared_ptrI4ItemEENS_9allocatorIS3_EEE16__destroy_vectorC1ERS6_, symObjAddr: 0x7FFC, symBinAddr: 0x100009544, symSize: 0x34 }
  - { offsetInCU: 0x15C58, offset: 0x15C58, size: 0x8, addend: 0x0, symName: __ZNSt3__16vectorINS_10shared_ptrI4ItemEENS_9allocatorIS3_EEE16__destroy_vectorclB7v160006Ev, symObjAddr: 0x8030, symBinAddr: 0x100009578, symSize: 0x9C }
  - { offsetInCU: 0x15C7E, offset: 0x15C7E, size: 0x8, addend: 0x0, symName: __ZNSt3__16vectorINS_10shared_ptrI4ItemEENS_9allocatorIS3_EEE16__destroy_vectorC2ERS6_, symObjAddr: 0x80CC, symBinAddr: 0x100009614, symSize: 0x20 }
  - { offsetInCU: 0x15CB7, offset: 0x15CB7, size: 0x8, addend: 0x0, symName: __ZNKSt3__16vectorINS_10shared_ptrI4ItemEENS_9allocatorIS3_EEE17__annotate_deleteB7v160006Ev, symObjAddr: 0x80EC, symBinAddr: 0x100009634, symSize: 0xB8 }
  - { offsetInCU: 0x15CDD, offset: 0x15CDD, size: 0x8, addend: 0x0, symName: __ZNSt3__16vectorINS_10shared_ptrI4ItemEENS_9allocatorIS3_EEE7__clearB7v160006Ev, symObjAddr: 0x81B4, symBinAddr: 0x1000096FC, symSize: 0x28 }
  - { offsetInCU: 0x15D03, offset: 0x15D03, size: 0x8, addend: 0x0, symName: __ZNSt3__116allocator_traitsINS_9allocatorINS_10shared_ptrI4ItemEEEEE10deallocateB7v160006ERS5_PS4_m, symObjAddr: 0x81DC, symBinAddr: 0x100009724, symSize: 0x34 }
  - { offsetInCU: 0x15D45, offset: 0x15D45, size: 0x8, addend: 0x0, symName: __ZNSt3__16vectorINS_10shared_ptrI4ItemEENS_9allocatorIS3_EEE7__allocB7v160006Ev, symObjAddr: 0x8210, symBinAddr: 0x100009758, symSize: 0x28 }
  - { offsetInCU: 0x15D6B, offset: 0x15D6B, size: 0x8, addend: 0x0, symName: __ZNKSt3__16vectorINS_10shared_ptrI4ItemEENS_9allocatorIS3_EEE8capacityB7v160006Ev, symObjAddr: 0x8238, symBinAddr: 0x100009780, symSize: 0x40 }
  - { offsetInCU: 0x15D91, offset: 0x15D91, size: 0x8, addend: 0x0, symName: __ZNKSt3__16vectorINS_10shared_ptrI4ItemEENS_9allocatorIS3_EEE31__annotate_contiguous_containerB7v160006EPKvS8_S8_S8_, symObjAddr: 0x8278, symBinAddr: 0x1000097C0, symSize: 0x20 }
  - { offsetInCU: 0x15DE3, offset: 0x15DE3, size: 0x8, addend: 0x0, symName: __ZNKSt3__16vectorINS_10shared_ptrI4ItemEENS_9allocatorIS3_EEE4dataB7v160006Ev, symObjAddr: 0x8298, symBinAddr: 0x1000097E0, symSize: 0x28 }
  - { offsetInCU: 0x15E09, offset: 0x15E09, size: 0x8, addend: 0x0, symName: __ZNKSt3__16vectorINS_10shared_ptrI4ItemEENS_9allocatorIS3_EEE4sizeB7v160006Ev, symObjAddr: 0x82C0, symBinAddr: 0x100009808, symSize: 0x28 }
  - { offsetInCU: 0x15E2F, offset: 0x15E2F, size: 0x8, addend: 0x0, symName: __ZNSt3__16vectorINS_10shared_ptrI4ItemEENS_9allocatorIS3_EEE22__base_destruct_at_endB7v160006EPS3_, symObjAddr: 0x82FC, symBinAddr: 0x100009844, symSize: 0x8C }
  - { offsetInCU: 0x15E73, offset: 0x15E73, size: 0x8, addend: 0x0, symName: __ZNSt3__116allocator_traitsINS_9allocatorINS_10shared_ptrI4ItemEEEEE7destroyB7v160006IS4_vEEvRS5_PT_, symObjAddr: 0x8388, symBinAddr: 0x1000098D0, symSize: 0x2C }
  - { offsetInCU: 0x15EB0, offset: 0x15EB0, size: 0x8, addend: 0x0, symName: __ZNSt3__19allocatorINS_10shared_ptrI4ItemEEE7destroyB7v160006EPS3_, symObjAddr: 0x83B4, symBinAddr: 0x1000098FC, symSize: 0x28 }
  - { offsetInCU: 0x15EE4, offset: 0x15EE4, size: 0x8, addend: 0x0, symName: __ZNSt3__110shared_ptrI4ItemED1B7v160006Ev, symObjAddr: 0x83DC, symBinAddr: 0x100009924, symSize: 0x2C }
  - { offsetInCU: 0x15F0E, offset: 0x15F0E, size: 0x8, addend: 0x0, symName: __ZNSt3__110shared_ptrI4ItemED2B7v160006Ev, symObjAddr: 0x8408, symBinAddr: 0x100009950, symSize: 0x54 }
  - { offsetInCU: 0x15F38, offset: 0x15F38, size: 0x8, addend: 0x0, symName: __ZNSt3__119__shared_weak_count16__release_sharedB7v160006Ev, symObjAddr: 0x845C, symBinAddr: 0x1000099A4, symSize: 0x3C }
  - { offsetInCU: 0x15F5E, offset: 0x15F5E, size: 0x8, addend: 0x0, symName: __ZNSt3__114__shared_count16__release_sharedB7v160006Ev, symObjAddr: 0x8498, symBinAddr: 0x1000099E0, symSize: 0x7C }
  - { offsetInCU: 0x15F84, offset: 0x15F84, size: 0x8, addend: 0x0, symName: __ZNSt3__19allocatorINS_10shared_ptrI4ItemEEE10deallocateB7v160006EPS3_m, symObjAddr: 0x8544, symBinAddr: 0x100009A8C, symSize: 0x40 }
  - { offsetInCU: 0x15FC6, offset: 0x15FC6, size: 0x8, addend: 0x0, symName: __ZNSt3__117__compressed_pairIPNS_10shared_ptrI4ItemEENS_9allocatorIS3_EEE6secondB7v160006Ev, symObjAddr: 0x8584, symBinAddr: 0x100009ACC, symSize: 0x24 }
  - { offsetInCU: 0x15FEC, offset: 0x15FEC, size: 0x8, addend: 0x0, symName: __ZNSt3__122__compressed_pair_elemINS_9allocatorINS_10shared_ptrI4ItemEEEELi1ELb1EE5__getB7v160006Ev, symObjAddr: 0x85A8, symBinAddr: 0x100009AF0, symSize: 0x14 }
  - { offsetInCU: 0x16012, offset: 0x16012, size: 0x8, addend: 0x0, symName: __ZNKSt3__16vectorINS_10shared_ptrI4ItemEENS_9allocatorIS3_EEE9__end_capB7v160006Ev, symObjAddr: 0x85BC, symBinAddr: 0x100009B04, symSize: 0x28 }
  - { offsetInCU: 0x16038, offset: 0x16038, size: 0x8, addend: 0x0, symName: __ZNKSt3__117__compressed_pairIPNS_10shared_ptrI4ItemEENS_9allocatorIS3_EEE5firstB7v160006Ev, symObjAddr: 0x85E4, symBinAddr: 0x100009B2C, symSize: 0x24 }
  - { offsetInCU: 0x1605E, offset: 0x1605E, size: 0x8, addend: 0x0, symName: __ZNKSt3__122__compressed_pair_elemIPNS_10shared_ptrI4ItemEELi0ELb0EE5__getB7v160006Ev, symObjAddr: 0x8608, symBinAddr: 0x100009B50, symSize: 0x14 }
  - { offsetInCU: 0x16084, offset: 0x16084, size: 0x8, addend: 0x0, symName: __ZN7DungeonD2Ev, symObjAddr: 0x861C, symBinAddr: 0x100009B64, symSize: 0x50 }
  - { offsetInCU: 0x160B0, offset: 0x160B0, size: 0x8, addend: 0x0, symName: __ZNSt3__111char_traitsIcE6lengthEPKc, symObjAddr: 0x8858, symBinAddr: 0x100009DA0, symSize: 0x34 }
  - { offsetInCU: 0x160F4, offset: 0x160F4, size: 0x8, addend: 0x0, symName: __ZNKSt3__113basic_ostreamIcNS_11char_traitsIcEEE6sentrycvbB7v160006Ev, symObjAddr: 0x888C, symBinAddr: 0x100009DD4, symSize: 0x1C }
  - { offsetInCU: 0x1611A, offset: 0x1611A, size: 0x8, addend: 0x0, symName: __ZNSt3__119ostreambuf_iteratorIcNS_11char_traitsIcEEEC1B7v160006ERNS_13basic_ostreamIcS2_EE, symObjAddr: 0x8AE8, symBinAddr: 0x10000A030, symSize: 0x34 }
  - { offsetInCU: 0x16152, offset: 0x16152, size: 0x8, addend: 0x0, symName: __ZNKSt3__18ios_base5flagsB7v160006Ev, symObjAddr: 0x8B1C, symBinAddr: 0x10000A064, symSize: 0x18 }
  - { offsetInCU: 0x1617A, offset: 0x1617A, size: 0x8, addend: 0x0, symName: __ZNKSt3__19basic_iosIcNS_11char_traitsIcEEE4fillB7v160006Ev, symObjAddr: 0x8B34, symBinAddr: 0x10000A07C, symSize: 0x64 }
  - { offsetInCU: 0x161A2, offset: 0x161A2, size: 0x8, addend: 0x0, symName: __ZNKSt3__119ostreambuf_iteratorIcNS_11char_traitsIcEEE6failedB7v160006Ev, symObjAddr: 0x8B98, symBinAddr: 0x10000A0E0, symSize: 0x24 }
  - { offsetInCU: 0x161C8, offset: 0x161C8, size: 0x8, addend: 0x0, symName: __ZNSt3__19basic_iosIcNS_11char_traitsIcEEE8setstateB7v160006Ej, symObjAddr: 0x8BBC, symBinAddr: 0x10000A104, symSize: 0x2C }
  - { offsetInCU: 0x161FD, offset: 0x161FD, size: 0x8, addend: 0x0, symName: __ZNKSt3__18ios_base5widthB7v160006Ev, symObjAddr: 0x8BE8, symBinAddr: 0x10000A130, symSize: 0x18 }
  - { offsetInCU: 0x16225, offset: 0x16225, size: 0x8, addend: 0x0, symName: __ZNSt3__115basic_streambufIcNS_11char_traitsIcEEE5sputnB7v160006EPKcl, symObjAddr: 0x8C00, symBinAddr: 0x10000A148, symSize: 0x3C }
  - { offsetInCU: 0x16267, offset: 0x16267, size: 0x8, addend: 0x0, symName: __ZNSt3__112basic_stringIcNS_11char_traitsIcEENS_9allocatorIcEEEC1B7v160006Emc, symObjAddr: 0x8C3C, symBinAddr: 0x10000A184, symSize: 0x3C }
  - { offsetInCU: 0x162AF, offset: 0x162AF, size: 0x8, addend: 0x0, symName: __ZNSt3__112basic_stringIcNS_11char_traitsIcEENS_9allocatorIcEEE4dataB7v160006Ev, symObjAddr: 0x8C78, symBinAddr: 0x10000A1C0, symSize: 0x28 }
  - { offsetInCU: 0x162D5, offset: 0x162D5, size: 0x8, addend: 0x0, symName: __ZNSt3__18ios_base5widthB7v160006El, symObjAddr: 0x8CA0, symBinAddr: 0x10000A1E8, symSize: 0x2C }
  - { offsetInCU: 0x1631B, offset: 0x1631B, size: 0x8, addend: 0x0, symName: __ZNSt3__112basic_stringIcNS_11char_traitsIcEENS_9allocatorIcEEEC2B7v160006Emc, symObjAddr: 0x8CCC, symBinAddr: 0x10000A214, symSize: 0x54 }
  - { offsetInCU: 0x16363, offset: 0x16363, size: 0x8, addend: 0x0, symName: __ZNSt3__117__compressed_pairINS_12basic_stringIcNS_11char_traitsIcEENS_9allocatorIcEEE5__repES5_EC1B7v160006INS_18__default_init_tagESA_EEOT_OT0_, symObjAddr: 0x8D20, symBinAddr: 0x10000A268, symSize: 0x3C }
  - { offsetInCU: 0x163BB, offset: 0x163BB, size: 0x8, addend: 0x0, symName: __ZNSt3__117__compressed_pairINS_12basic_stringIcNS_11char_traitsIcEENS_9allocatorIcEEE5__repES5_EC2B7v160006INS_18__default_init_tagESA_EEOT_OT0_, symObjAddr: 0x8D6C, symBinAddr: 0x10000A2B4, symSize: 0x3C }
  - { offsetInCU: 0x16413, offset: 0x16413, size: 0x8, addend: 0x0, symName: __ZNSt3__122__compressed_pair_elemINS_12basic_stringIcNS_11char_traitsIcEENS_9allocatorIcEEE5__repELi0ELb0EEC2B7v160006ENS_18__default_init_tagE, symObjAddr: 0x8DA8, symBinAddr: 0x10000A2F0, symSize: 0x14 }
  - { offsetInCU: 0x16448, offset: 0x16448, size: 0x8, addend: 0x0, symName: __ZNSt3__122__compressed_pair_elemINS_9allocatorIcEELi1ELb1EEC2B7v160006ENS_18__default_init_tagE, symObjAddr: 0x8DBC, symBinAddr: 0x10000A304, symSize: 0x2C }
  - { offsetInCU: 0x1647D, offset: 0x1647D, size: 0x8, addend: 0x0, symName: __ZNSt3__19allocatorIcEC2B7v160006Ev, symObjAddr: 0x8DE8, symBinAddr: 0x10000A330, symSize: 0x2C }
  - { offsetInCU: 0x164A7, offset: 0x164A7, size: 0x8, addend: 0x0, symName: __ZNSt3__116__non_trivial_ifILb1ENS_9allocatorIcEEEC2B7v160006Ev, symObjAddr: 0x8E14, symBinAddr: 0x10000A35C, symSize: 0x14 }
  - { offsetInCU: 0x164D1, offset: 0x164D1, size: 0x8, addend: 0x0, symName: __ZNSt3__112basic_stringIcNS_11char_traitsIcEENS_9allocatorIcEEE13__get_pointerB7v160006Ev, symObjAddr: 0x8E3C, symBinAddr: 0x10000A384, symSize: 0x54 }
  - { offsetInCU: 0x164F7, offset: 0x164F7, size: 0x8, addend: 0x0, symName: __ZNKSt3__112basic_stringIcNS_11char_traitsIcEENS_9allocatorIcEEE9__is_longB7v160006Ev, symObjAddr: 0x8E90, symBinAddr: 0x10000A3D8, symSize: 0x38 }
  - { offsetInCU: 0x1651D, offset: 0x1651D, size: 0x8, addend: 0x0, symName: __ZNSt3__112basic_stringIcNS_11char_traitsIcEENS_9allocatorIcEEE18__get_long_pointerB7v160006Ev, symObjAddr: 0x8EC8, symBinAddr: 0x10000A410, symSize: 0x28 }
  - { offsetInCU: 0x16543, offset: 0x16543, size: 0x8, addend: 0x0, symName: __ZNSt3__112basic_stringIcNS_11char_traitsIcEENS_9allocatorIcEEE19__get_short_pointerB7v160006Ev, symObjAddr: 0x8EF0, symBinAddr: 0x10000A438, symSize: 0x28 }
  - { offsetInCU: 0x16569, offset: 0x16569, size: 0x8, addend: 0x0, symName: __ZNKSt3__117__compressed_pairINS_12basic_stringIcNS_11char_traitsIcEENS_9allocatorIcEEE5__repES5_E5firstB7v160006Ev, symObjAddr: 0x8F18, symBinAddr: 0x10000A460, symSize: 0x24 }
  - { offsetInCU: 0x1658F, offset: 0x1658F, size: 0x8, addend: 0x0, symName: __ZNKSt3__122__compressed_pair_elemINS_12basic_stringIcNS_11char_traitsIcEENS_9allocatorIcEEE5__repELi0ELb0EE5__getB7v160006Ev, symObjAddr: 0x8F3C, symBinAddr: 0x10000A484, symSize: 0x14 }
  - { offsetInCU: 0x165B5, offset: 0x165B5, size: 0x8, addend: 0x0, symName: __ZNSt3__117__compressed_pairINS_12basic_stringIcNS_11char_traitsIcEENS_9allocatorIcEEE5__repES5_E5firstB7v160006Ev, symObjAddr: 0x8F50, symBinAddr: 0x10000A498, symSize: 0x24 }
  - { offsetInCU: 0x165DB, offset: 0x165DB, size: 0x8, addend: 0x0, symName: __ZNSt3__122__compressed_pair_elemINS_12basic_stringIcNS_11char_traitsIcEENS_9allocatorIcEEE5__repELi0ELb0EE5__getB7v160006Ev, symObjAddr: 0x8F74, symBinAddr: 0x10000A4BC, symSize: 0x14 }
  - { offsetInCU: 0x16601, offset: 0x16601, size: 0x8, addend: 0x0, symName: __ZNSt3__114pointer_traitsIPcE10pointer_toB7v160006ERc, symObjAddr: 0x8F88, symBinAddr: 0x10000A4D0, symSize: 0x14 }
  - { offsetInCU: 0x16624, offset: 0x16624, size: 0x8, addend: 0x0, symName: __ZNSt3__119ostreambuf_iteratorIcNS_11char_traitsIcEEEC2B7v160006ERNS_13basic_ostreamIcS2_EE, symObjAddr: 0x8F9C, symBinAddr: 0x10000A4E4, symSize: 0x54 }
  - { offsetInCU: 0x1665C, offset: 0x1665C, size: 0x8, addend: 0x0, symName: __ZNKSt3__19basic_iosIcNS_11char_traitsIcEEE5rdbufB7v160006Ev, symObjAddr: 0x8FF0, symBinAddr: 0x10000A538, symSize: 0x24 }
  - { offsetInCU: 0x16684, offset: 0x16684, size: 0x8, addend: 0x0, symName: __ZNKSt3__18ios_base5rdbufB7v160006Ev, symObjAddr: 0x9014, symBinAddr: 0x10000A55C, symSize: 0x18 }
  - { offsetInCU: 0x166AA, offset: 0x166AA, size: 0x8, addend: 0x0, symName: __ZNSt3__111char_traitsIcE11eq_int_typeEii, symObjAddr: 0x902C, symBinAddr: 0x10000A574, symSize: 0x28 }
  - { offsetInCU: 0x166DB, offset: 0x166DB, size: 0x8, addend: 0x0, symName: __ZNSt3__111char_traitsIcE3eofEv, symObjAddr: 0x9054, symBinAddr: 0x10000A59C, symSize: 0x8 }
  - { offsetInCU: 0x166EF, offset: 0x166EF, size: 0x8, addend: 0x0, symName: __ZNKSt3__19basic_iosIcNS_11char_traitsIcEEE5widenB7v160006Ec, symObjAddr: 0x905C, symBinAddr: 0x10000A5A4, symSize: 0x84 }
  - { offsetInCU: 0x1674E, offset: 0x1674E, size: 0x8, addend: 0x0, symName: __ZNKSt3__15ctypeIcE5widenB7v160006Ec, symObjAddr: 0x910C, symBinAddr: 0x10000A654, symSize: 0x38 }
  - { offsetInCU: 0x16783, offset: 0x16783, size: 0x8, addend: 0x0, symName: __ZNSt3__18ios_base8setstateB7v160006Ej, symObjAddr: 0x9144, symBinAddr: 0x10000A68C, symSize: 0x34 }
  - { offsetInCU: 0x167BA, offset: 0x167BA, size: 0x8, addend: 0x0, symName: __ZNSt3__112basic_stringIcNS_11char_traitsIcEENS_9allocatorIcEEEC2B7v160006Ev, symObjAddr: 0x919C, symBinAddr: 0x10000A6E4, symSize: 0x50 }
  - { offsetInCU: 0x167E4, offset: 0x167E4, size: 0x8, addend: 0x0, symName: __ZNSt3__112basic_stringIcNS_11char_traitsIcEENS_9allocatorIcEEE14__default_initB7v160006Ev, symObjAddr: 0x91EC, symBinAddr: 0x10000A734, symSize: 0x40 }
  - { offsetInCU: 0x1680A, offset: 0x1680A, size: 0x8, addend: 0x0, symName: __ZNSt3__110shared_ptrI4TileED2B7v160006Ev, symObjAddr: 0x922C, symBinAddr: 0x10000A774, symSize: 0x54 }
  - { offsetInCU: 0x168DA, offset: 0x168DA, size: 0x8, addend: 0x0, symName: __ZNKSt3__113basic_istreamIcNS_11char_traitsIcEEE6sentrycvbB7v160006Ev, symObjAddr: 0x9280, symBinAddr: 0x10000A7C8, symSize: 0x1C }
  - { offsetInCU: 0x16900, offset: 0x16900, size: 0x8, addend: 0x0, symName: __ZNSt3__112basic_stringIcNS_11char_traitsIcEENS_9allocatorIcEEE5clearB7v160006Ev, symObjAddr: 0x929C, symBinAddr: 0x10000A7E4, symSize: 0x88 }
  - { offsetInCU: 0x16928, offset: 0x16928, size: 0x8, addend: 0x0, symName: __ZNKSt3__112basic_stringIcNS_11char_traitsIcEENS_9allocatorIcEEE8max_sizeB7v160006Ev, symObjAddr: 0x9324, symBinAddr: 0x10000A86C, symSize: 0xAC }
  - { offsetInCU: 0x1697A, offset: 0x1697A, size: 0x8, addend: 0x0, symName: __ZNSt3__115basic_streambufIcNS_11char_traitsIcEEE5sgetcB7v160006Ev, symObjAddr: 0x93D0, symBinAddr: 0x10000A918, symSize: 0x70 }
  - { offsetInCU: 0x169A0, offset: 0x169A0, size: 0x8, addend: 0x0, symName: __ZNSt3__111char_traitsIcE12to_char_typeEi, symObjAddr: 0x9440, symBinAddr: 0x10000A988, symSize: 0x18 }
  - { offsetInCU: 0x169C3, offset: 0x169C3, size: 0x8, addend: 0x0, symName: __ZNKSt3__15ctypeIcE2isB7v160006Ejc, symObjAddr: 0x9458, symBinAddr: 0x10000A9A0, symSize: 0x7C }
  - { offsetInCU: 0x16A07, offset: 0x16A07, size: 0x8, addend: 0x0, symName: __ZNSt3__115basic_streambufIcNS_11char_traitsIcEEE6sbumpcB7v160006Ev, symObjAddr: 0x94D4, symBinAddr: 0x10000AA1C, symSize: 0x78 }
  - { offsetInCU: 0x16A2D, offset: 0x16A2D, size: 0x8, addend: 0x0, symName: __ZNSt3__18ios_base18__setstate_nothrowB7v160006Ej, symObjAddr: 0x954C, symBinAddr: 0x10000AA94, symSize: 0x64 }
  - { offsetInCU: 0x16A62, offset: 0x16A62, size: 0x8, addend: 0x0, symName: __ZNKSt3__19basic_iosIcNS_11char_traitsIcEEE10exceptionsB7v160006Ev, symObjAddr: 0x95B0, symBinAddr: 0x10000AAF8, symSize: 0x24 }
  - { offsetInCU: 0x16A88, offset: 0x16A88, size: 0x8, addend: 0x0, symName: __ZNSt3__111char_traitsIcE6assignERcRKc, symObjAddr: 0x95E4, symBinAddr: 0x10000AB2C, symSize: 0x24 }
  - { offsetInCU: 0x16AB9, offset: 0x16AB9, size: 0x8, addend: 0x0, symName: __ZNSt3__112basic_stringIcNS_11char_traitsIcEENS_9allocatorIcEEE15__set_long_sizeB7v160006Em, symObjAddr: 0x9608, symBinAddr: 0x10000AB50, symSize: 0x38 }
  - { offsetInCU: 0x16AEE, offset: 0x16AEE, size: 0x8, addend: 0x0, symName: __ZNSt3__112basic_stringIcNS_11char_traitsIcEENS_9allocatorIcEEE16__set_short_sizeB7v160006Em, symObjAddr: 0x9640, symBinAddr: 0x10000AB88, symSize: 0x78 }
  - { offsetInCU: 0x16B2E, offset: 0x16B2E, size: 0x8, addend: 0x0, symName: __ZNSt3__116allocator_traitsINS_9allocatorIcEEE8max_sizeB7v160006IS2_vEEmRKS2_, symObjAddr: 0x96B8, symBinAddr: 0x10000AC00, symSize: 0x24 }
  - { offsetInCU: 0x16B5C, offset: 0x16B5C, size: 0x8, addend: 0x0, symName: __ZNKSt3__112basic_stringIcNS_11char_traitsIcEENS_9allocatorIcEEE7__allocB7v160006Ev, symObjAddr: 0x96DC, symBinAddr: 0x10000AC24, symSize: 0x24 }
  - { offsetInCU: 0x16B82, offset: 0x16B82, size: 0x8, addend: 0x0, symName: __ZNKSt3__19allocatorIcE8max_sizeB7v160006Ev, symObjAddr: 0x9700, symBinAddr: 0x10000AC48, symSize: 0x14 }
  - { offsetInCU: 0x16BA8, offset: 0x16BA8, size: 0x8, addend: 0x0, symName: __ZNKSt3__117__compressed_pairINS_12basic_stringIcNS_11char_traitsIcEENS_9allocatorIcEEE5__repES5_E6secondB7v160006Ev, symObjAddr: 0x9714, symBinAddr: 0x10000AC5C, symSize: 0x24 }
  - { offsetInCU: 0x16BCE, offset: 0x16BCE, size: 0x8, addend: 0x0, symName: __ZNKSt3__122__compressed_pair_elemINS_9allocatorIcEELi1ELb1EE5__getB7v160006Ev, symObjAddr: 0x9738, symBinAddr: 0x10000AC80, symSize: 0x14 }
  - { offsetInCU: 0x16BF4, offset: 0x16BF4, size: 0x8, addend: 0x0, symName: __ZNSt3__111char_traitsIcE11to_int_typeEc, symObjAddr: 0x974C, symBinAddr: 0x10000AC94, symSize: 0x14 }
  - { offsetInCU: 0x16C16, offset: 0x16C16, size: 0x8, addend: 0x0, symName: __Z7isasciii, symObjAddr: 0x9760, symBinAddr: 0x10000ACA8, symSize: 0x24 }
  - { offsetInCU: 0x16C43, offset: 0x16C43, size: 0x8, addend: 0x0, symName: __ZNKSt3__18ios_base10exceptionsB7v160006Ev, symObjAddr: 0x9784, symBinAddr: 0x10000ACCC, symSize: 0x18 }
  - { offsetInCU: 0x16C6B, offset: 0x16C6B, size: 0x8, addend: 0x0, symName: __ZNKSt3__112basic_stringIcNS_11char_traitsIcEENS_9allocatorIcEEE4dataB7v160006Ev, symObjAddr: 0x979C, symBinAddr: 0x10000ACE4, symSize: 0x28 }
  - { offsetInCU: 0x16C91, offset: 0x16C91, size: 0x8, addend: 0x0, symName: __ZNKSt3__112basic_stringIcNS_11char_traitsIcEENS_9allocatorIcEEE4sizeB7v160006Ev, symObjAddr: 0x97C4, symBinAddr: 0x10000AD0C, symSize: 0x54 }
  - { offsetInCU: 0x16CB7, offset: 0x16CB7, size: 0x8, addend: 0x0, symName: __ZNKSt3__112basic_stringIcNS_11char_traitsIcEENS_9allocatorIcEEE13__get_pointerB7v160006Ev, symObjAddr: 0x982C, symBinAddr: 0x10000AD74, symSize: 0x54 }
  - { offsetInCU: 0x16CDD, offset: 0x16CDD, size: 0x8, addend: 0x0, symName: __ZNKSt3__112basic_stringIcNS_11char_traitsIcEENS_9allocatorIcEEE18__get_long_pointerB7v160006Ev, symObjAddr: 0x9880, symBinAddr: 0x10000ADC8, symSize: 0x28 }
  - { offsetInCU: 0x16D03, offset: 0x16D03, size: 0x8, addend: 0x0, symName: __ZNKSt3__112basic_stringIcNS_11char_traitsIcEENS_9allocatorIcEEE19__get_short_pointerB7v160006Ev, symObjAddr: 0x98A8, symBinAddr: 0x10000ADF0, symSize: 0x28 }
  - { offsetInCU: 0x16D29, offset: 0x16D29, size: 0x8, addend: 0x0, symName: __ZNSt3__114pointer_traitsIPKcE10pointer_toB7v160006ERS1_, symObjAddr: 0x98D0, symBinAddr: 0x10000AE18, symSize: 0x14 }
  - { offsetInCU: 0x16D4C, offset: 0x16D4C, size: 0x8, addend: 0x0, symName: __ZNKSt3__112basic_stringIcNS_11char_traitsIcEENS_9allocatorIcEEE15__get_long_sizeB7v160006Ev, symObjAddr: 0x98E4, symBinAddr: 0x10000AE2C, symSize: 0x28 }
  - { offsetInCU: 0x16D72, offset: 0x16D72, size: 0x8, addend: 0x0, symName: __ZNKSt3__112basic_stringIcNS_11char_traitsIcEENS_9allocatorIcEEE16__get_short_sizeB7v160006Ev, symObjAddr: 0x990C, symBinAddr: 0x10000AE54, symSize: 0x34 }
...
